ARM GAS  C:\Users\agila\AppData\Local\Temp\ccxXs3Ca.s 			page 1


   1              		.syntax unified
   2              		.cpu cortex-m3
   3              		.fpu softvfp
   4              		.eabi_attribute 20, 1
   5              		.eabi_attribute 21, 1
   6              		.eabi_attribute 23, 3
   7              		.eabi_attribute 24, 1
   8              		.eabi_attribute 25, 1
   9              		.eabi_attribute 26, 1
  10              		.eabi_attribute 30, 1
  11              		.eabi_attribute 34, 1
  12              		.eabi_attribute 18, 4
  13              		.thumb
  14              		.syntax unified
  15              		.file	"comms.c"
  16              		.text
  17              	.Ltext0:
  18              		.cfi_sections	.debug_frame
  19              		.section	.text.streamRB_init,"ax",%progbits
  20              		.align	2
  21              		.global	streamRB_init
  22              		.thumb
  23              		.thumb_func
  24              		.type	streamRB_init, %function
  25              	streamRB_init:
  26              	.LFB110:
  27              		.file 1 "comms.c"
   1:comms.c       **** /* ========================================
   2:comms.c       ****  *
   3:comms.c       ****  * \file comms.c
   4:comms.c       ****  * \author V.S. Agilan
   5:comms.c       ****  * \date 21.01.26
   6:comms.c       ****  *
   7:comms.c       ****  * Copyright YOUR COMPANY, THE YEAR
   8:comms.c       ****  * All Rights Reserved
   9:comms.c       ****  * UNPUBLISHED, LICENSED SOFTWARE.
  10:comms.c       ****  *
  11:comms.c       ****  * CONFIDENTIAL AND PROPRIETARY INFORMATION
  12:comms.c       ****  * WHICH IS THE PROPERTY OF your company.
  13:comms.c       ****  *
  14:comms.c       ****  * ========================================
  15:comms.c       **** */
  16:comms.c       **** 
  17:comms.c       **** #include "comms.h"
  18:comms.c       **** 
  19:comms.c       **** /* ========================================
  20:comms.c       ****  *  Streaming Buffer
  21:comms.c       ****  * ========================================
  22:comms.c       **** */
  23:comms.c       **** 
  24:comms.c       **** /**
  25:comms.c       ****  * Initialize a streaming ring buffer instance.
  26:comms.c       ****  * 
  27:comms.c       ****  * @param rb Pointer to streaming ring buffer object to be initialized.
  28:comms.c       ****  * @return RC_SUCCESS on successful initialization.
  29:comms.c       ****  */
  30:comms.c       **** RC_t streamRB_init(StreamingRB_t *rb) 
ARM GAS  C:\Users\agila\AppData\Local\Temp\ccxXs3Ca.s 			page 2


  31:comms.c       **** {
  28              		.loc 1 31 0
  29              		.cfi_startproc
  30              		@ args = 0, pretend = 0, frame = 0
  31              		@ frame_needed = 0, uses_anonymous_args = 0
  32              		@ link register save eliminated.
  33              	.LVL0:
  32:comms.c       ****     rb->readIdx = rb->writeIdx = rb->fillLevel = 0;
  34              		.loc 1 32 0
  35 0000 0023     		movs	r3, #0
  36 0002 A0F80431 		strh	r3, [r0, #260]	@ movhi
  37 0006 A0F80231 		strh	r3, [r0, #258]	@ movhi
  38 000a A0F80031 		strh	r3, [r0, #256]	@ movhi
  33:comms.c       ****     return RC_SUCCESS;
  34:comms.c       **** }
  39              		.loc 1 34 0
  40 000e 1846     		mov	r0, r3
  41              	.LVL1:
  42 0010 7047     		bx	lr
  43              		.cfi_endproc
  44              	.LFE110:
  45              		.size	streamRB_init, .-streamRB_init
  46 0012 00BF     		.section	.text.streamRB_write,"ax",%progbits
  47              		.align	2
  48              		.global	streamRB_write
  49              		.thumb
  50              		.thumb_func
  51              		.type	streamRB_write, %function
  52              	streamRB_write:
  53              	.LFB111:
  35:comms.c       **** 
  36:comms.c       **** /**
  37:comms.c       ****  * Write one byte into the streaming ring buffer.
  38:comms.c       ****  * 
  39:comms.c       ****  * @param rb   Pointer to streaming ring buffer instance (IN/OUT).
  40:comms.c       ****  * @param byte Pointer to byte value to be written into the buffer (IN).
  41:comms.c       ****  * @return RC_SUCCESS if written, RC_ERROR_BUFFER_FULL if no space is available.
  42:comms.c       ****  */
  43:comms.c       **** RC_t streamRB_write(StreamingRB_t *rb, uint8_t *byte) 
  44:comms.c       **** {
  54              		.loc 1 44 0
  55              		.cfi_startproc
  56              		@ args = 0, pretend = 0, frame = 0
  57              		@ frame_needed = 0, uses_anonymous_args = 0
  58              		@ link register save eliminated.
  59              	.LVL2:
  45:comms.c       ****     if (rb->fillLevel < RB_SIZE) {
  60              		.loc 1 45 0
  61 0000 B0F80431 		ldrh	r3, [r0, #260]
  62 0004 9BB2     		uxth	r3, r3
  63 0006 FF2B     		cmp	r3, #255
  64 0008 16D8     		bhi	.L4
  46:comms.c       ****         rb->buffer[rb->writeIdx++] = *byte;
  65              		.loc 1 46 0
  66 000a B0F80231 		ldrh	r3, [r0, #258]
  67 000e 9BB2     		uxth	r3, r3
  68 0010 5A1C     		adds	r2, r3, #1
ARM GAS  C:\Users\agila\AppData\Local\Temp\ccxXs3Ca.s 			page 3


  69 0012 92B2     		uxth	r2, r2
  70 0014 A0F80221 		strh	r2, [r0, #258]	@ movhi
  71 0018 0A78     		ldrb	r2, [r1]	@ zero_extendqisi2
  72 001a C254     		strb	r2, [r0, r3]
  47:comms.c       ****         rb->writeIdx %= RB_SIZE;
  73              		.loc 1 47 0
  74 001c B0F80231 		ldrh	r3, [r0, #258]
  75 0020 DBB2     		uxtb	r3, r3
  76 0022 A0F80231 		strh	r3, [r0, #258]	@ movhi
  48:comms.c       ****         rb->fillLevel++;
  77              		.loc 1 48 0
  78 0026 B0F80431 		ldrh	r3, [r0, #260]
  79 002a 9BB2     		uxth	r3, r3
  80 002c 0133     		adds	r3, r3, #1
  81 002e 9BB2     		uxth	r3, r3
  82 0030 A0F80431 		strh	r3, [r0, #260]	@ movhi
  49:comms.c       ****         return RC_SUCCESS;
  83              		.loc 1 49 0
  84 0034 0020     		movs	r0, #0
  85              	.LVL3:
  86 0036 7047     		bx	lr
  87              	.LVL4:
  88              	.L4:
  50:comms.c       ****     }
  51:comms.c       ****     return RC_ERROR_BUFFER_FULL;
  89              		.loc 1 51 0
  90 0038 6FF00700 		mvn	r0, #7
  91              	.LVL5:
  52:comms.c       **** }
  92              		.loc 1 52 0
  93 003c 7047     		bx	lr
  94              		.cfi_endproc
  95              	.LFE111:
  96              		.size	streamRB_write, .-streamRB_write
  97 003e 00BF     		.section	.text.streamRB_read_byte,"ax",%progbits
  98              		.align	2
  99              		.global	streamRB_read_byte
 100              		.thumb
 101              		.thumb_func
 102              		.type	streamRB_read_byte, %function
 103              	streamRB_read_byte:
 104              	.LFB113:
  53:comms.c       **** 
  54:comms.c       **** /**
  55:comms.c       ****  * Read one complete message from the streaming ring buffer.
  56:comms.c       ****  * 
  57:comms.c       ****  * A message is defined as a contiguous sequence of bytes ending with the
  58:comms.c       ****  * EOM_MARKER. The function copies bytes into the provided buffer until
  59:comms.c       ****  * the marker is found or an error occurs.
  60:comms.c       ****  * 
  61:comms.c       ****  * @param rb      Pointer to streaming ring buffer instance (IN/OUT).
  62:comms.c       ****  * @param msg     Destination buffer for the assembled message (OUT).
  63:comms.c       ****  * @param msg_len Pointer to variable that receives the message length (OUT).
  64:comms.c       ****  * @return RC_SUCCESS on complete message, RC_ERROR_WRITE_FAILS if too long,
  65:comms.c       ****  *         RC_ERROR_READ_FAILS if EOM not found.
  66:comms.c       ****  */
  67:comms.c       **** RC_t streamRB_read_message(StreamingRB_t *rb, uint8_t *msg, uint16_t *msg_len) 
ARM GAS  C:\Users\agila\AppData\Local\Temp\ccxXs3Ca.s 			page 4


  68:comms.c       **** {
  69:comms.c       ****     *msg_len = 0;
  70:comms.c       ****     
  71:comms.c       ****     /* Protect buffer access on task level with a resource. */
  72:comms.c       ****     GetResource(res_stream);  // Protect task access
  73:comms.c       ****     
  74:comms.c       ****     /* Extract one complete message terminated with EOM_MARKER. */
  75:comms.c       ****     while (rb->fillLevel > 0) 
  76:comms.c       ****     {
  77:comms.c       ****         uint8_t byte;
  78:comms.c       ****         streamRB_read_byte(rb, &byte);
  79:comms.c       ****         
  80:comms.c       ****         msg[(*msg_len)++] = byte;
  81:comms.c       ****         
  82:comms.c       ****         if (byte == EOM_MARKER) {  // End of message found
  83:comms.c       ****             ReleaseResource(res_stream);
  84:comms.c       ****             return RC_SUCCESS;
  85:comms.c       ****         }
  86:comms.c       ****         
  87:comms.c       ****         if (*msg_len >= MAX_MSG_LEN) {
  88:comms.c       ****             ReleaseResource(res_stream);
  89:comms.c       ****             return RC_ERROR_WRITE_FAILS;   // RC_ERROR_TOO_LONG
  90:comms.c       ****         }
  91:comms.c       ****     }
  92:comms.c       ****     ReleaseResource(res_stream);
  93:comms.c       ****     
  94:comms.c       ****     return RC_ERROR_READ_FAILS;  // No EOM found - RC_ERROR_INCOMPLETE
  95:comms.c       **** }
  96:comms.c       **** 
  97:comms.c       **** /**
  98:comms.c       ****  * Read a single byte from the streaming ring buffer.
  99:comms.c       ****  * 
 100:comms.c       ****  * @param rb   Pointer to streaming ring buffer instance (IN/OUT).
 101:comms.c       ****  * @param byte Pointer to destination byte receiving the read value (OUT).
 102:comms.c       ****  * @return RC_SUCCESS if a byte was read, RC_ERROR_BUFFER_EMTPY if buffer is empty.
 103:comms.c       ****  */
 104:comms.c       **** RC_t streamRB_read_byte(StreamingRB_t *rb, uint8_t *byte) 
 105:comms.c       **** {
 105              		.loc 1 105 0
 106              		.cfi_startproc
 107              		@ args = 0, pretend = 0, frame = 0
 108              		@ frame_needed = 0, uses_anonymous_args = 0
 109              		@ link register save eliminated.
 110              	.LVL6:
 106:comms.c       ****     if (rb->fillLevel > 0) {
 111              		.loc 1 106 0
 112 0000 B0F80431 		ldrh	r3, [r0, #260]
 113 0004 9BB2     		uxth	r3, r3
 114 0006 B3B1     		cbz	r3, .L7
 107:comms.c       ****         *byte = rb->buffer[rb->readIdx++];
 115              		.loc 1 107 0
 116 0008 B0F80031 		ldrh	r3, [r0, #256]
 117 000c 9BB2     		uxth	r3, r3
 118 000e 5A1C     		adds	r2, r3, #1
 119 0010 92B2     		uxth	r2, r2
 120 0012 A0F80021 		strh	r2, [r0, #256]	@ movhi
 121 0016 C35C     		ldrb	r3, [r0, r3]	@ zero_extendqisi2
ARM GAS  C:\Users\agila\AppData\Local\Temp\ccxXs3Ca.s 			page 5


 122 0018 0B70     		strb	r3, [r1]
 108:comms.c       ****         rb->readIdx = rb->readIdx % RB_SIZE;
 123              		.loc 1 108 0
 124 001a B0F80031 		ldrh	r3, [r0, #256]
 125 001e DBB2     		uxtb	r3, r3
 126 0020 A0F80031 		strh	r3, [r0, #256]	@ movhi
 109:comms.c       ****         rb->fillLevel--;
 127              		.loc 1 109 0
 128 0024 B0F80431 		ldrh	r3, [r0, #260]
 129 0028 9BB2     		uxth	r3, r3
 130 002a 013B     		subs	r3, r3, #1
 131 002c 9BB2     		uxth	r3, r3
 132 002e A0F80431 		strh	r3, [r0, #260]	@ movhi
 110:comms.c       ****         return RC_SUCCESS;
 133              		.loc 1 110 0
 134 0032 0020     		movs	r0, #0
 135              	.LVL7:
 136 0034 7047     		bx	lr
 137              	.LVL8:
 138              	.L7:
 111:comms.c       ****     }
 112:comms.c       ****     return RC_ERROR_BUFFER_EMTPY;
 139              		.loc 1 112 0
 140 0036 6FF00800 		mvn	r0, #8
 141              	.LVL9:
 113:comms.c       **** }
 142              		.loc 1 113 0
 143 003a 7047     		bx	lr
 144              		.cfi_endproc
 145              	.LFE113:
 146              		.size	streamRB_read_byte, .-streamRB_read_byte
 147              		.section	.text.streamRB_read_message,"ax",%progbits
 148              		.align	2
 149              		.global	streamRB_read_message
 150              		.thumb
 151              		.thumb_func
 152              		.type	streamRB_read_message, %function
 153              	streamRB_read_message:
 154              	.LFB112:
  68:comms.c       ****     *msg_len = 0;
 155              		.loc 1 68 0
 156              		.cfi_startproc
 157              		@ args = 0, pretend = 0, frame = 8
 158              		@ frame_needed = 0, uses_anonymous_args = 0
 159              	.LVL10:
 160 0000 70B5     		push	{r4, r5, r6, lr}
 161              		.cfi_def_cfa_offset 16
 162              		.cfi_offset 4, -16
 163              		.cfi_offset 5, -12
 164              		.cfi_offset 6, -8
 165              		.cfi_offset 14, -4
 166 0002 82B0     		sub	sp, sp, #8
 167              		.cfi_def_cfa_offset 24
 168 0004 0546     		mov	r5, r0
 169 0006 0E46     		mov	r6, r1
 170 0008 1446     		mov	r4, r2
  69:comms.c       ****     
ARM GAS  C:\Users\agila\AppData\Local\Temp\ccxXs3Ca.s 			page 6


 171              		.loc 1 69 0
 172 000a 0023     		movs	r3, #0
 173 000c 1380     		strh	r3, [r2]	@ movhi
  72:comms.c       ****     
 174              		.loc 1 72 0
 175 000e 0120     		movs	r0, #1
 176              	.LVL11:
 177 0010 FFF7FEFF 		bl	EE_oo_GetResource
 178              	.LVL12:
  75:comms.c       ****     {
 179              		.loc 1 75 0
 180 0014 19E0     		b	.L9
 181              	.L14:
 182              	.LBB2:
  78:comms.c       ****         
 183              		.loc 1 78 0
 184 0016 0DF10701 		add	r1, sp, #7
 185 001a 2846     		mov	r0, r5
 186 001c FFF7FEFF 		bl	streamRB_read_byte
 187              	.LVL13:
  80:comms.c       ****         
 188              		.loc 1 80 0
 189 0020 2288     		ldrh	r2, [r4]
 190 0022 531C     		adds	r3, r2, #1
 191 0024 2380     		strh	r3, [r4]	@ movhi
 192 0026 9DF80730 		ldrb	r3, [sp, #7]	@ zero_extendqisi2
 193 002a B354     		strb	r3, [r6, r2]
  82:comms.c       ****             ReleaseResource(res_stream);
 194              		.loc 1 82 0
 195 002c 23B9     		cbnz	r3, .L10
  83:comms.c       ****             return RC_SUCCESS;
 196              		.loc 1 83 0
 197 002e 0120     		movs	r0, #1
 198 0030 FFF7FEFF 		bl	EE_oo_ReleaseResource
 199              	.LVL14:
  84:comms.c       ****         }
 200              		.loc 1 84 0
 201 0034 0020     		movs	r0, #0
 202 0036 12E0     		b	.L13
 203              	.L10:
  87:comms.c       ****             ReleaseResource(res_stream);
 204              		.loc 1 87 0
 205 0038 2388     		ldrh	r3, [r4]
 206 003a 7F2B     		cmp	r3, #127
 207 003c 05D9     		bls	.L9
  88:comms.c       ****             return RC_ERROR_WRITE_FAILS;   // RC_ERROR_TOO_LONG
 208              		.loc 1 88 0
 209 003e 0120     		movs	r0, #1
 210 0040 FFF7FEFF 		bl	EE_oo_ReleaseResource
 211              	.LVL15:
  89:comms.c       ****         }
 212              		.loc 1 89 0
 213 0044 6FF01100 		mvn	r0, #17
 214 0048 09E0     		b	.L13
 215              	.L9:
 216              	.LBE2:
  75:comms.c       ****     {
ARM GAS  C:\Users\agila\AppData\Local\Temp\ccxXs3Ca.s 			page 7


 217              		.loc 1 75 0
 218 004a B5F80431 		ldrh	r3, [r5, #260]
 219 004e 9BB2     		uxth	r3, r3
 220 0050 002B     		cmp	r3, #0
 221 0052 E0D1     		bne	.L14
  92:comms.c       ****     
 222              		.loc 1 92 0
 223 0054 0120     		movs	r0, #1
 224 0056 FFF7FEFF 		bl	EE_oo_ReleaseResource
 225              	.LVL16:
  94:comms.c       **** }
 226              		.loc 1 94 0
 227 005a 6FF01000 		mvn	r0, #16
 228              	.L13:
  95:comms.c       **** 
 229              		.loc 1 95 0
 230 005e 02B0     		add	sp, sp, #8
 231              		.cfi_def_cfa_offset 16
 232              		@ sp needed
 233 0060 70BD     		pop	{r4, r5, r6, pc}
 234              		.cfi_endproc
 235              	.LFE112:
 236              		.size	streamRB_read_message, .-streamRB_read_message
 237 0062 00BF     		.section	.text.streamRB_flush,"ax",%progbits
 238              		.align	2
 239              		.global	streamRB_flush
 240              		.thumb
 241              		.thumb_func
 242              		.type	streamRB_flush, %function
 243              	streamRB_flush:
 244              	.LFB114:
 114:comms.c       **** 
 115:comms.c       **** /**
 116:comms.c       ****  * Flush all pending data in the streaming ring buffer.
 117:comms.c       ****  * 
 118:comms.c       ****  * Sets the read index equal to the write index and resets the fill level
 119:comms.c       ****  * so that the buffer appears empty to all users.
 120:comms.c       ****  * 
 121:comms.c       ****  * @param rb Pointer to streaming ring buffer instance to be flushed (IN/OUT).
 122:comms.c       ****  * @return RC_SUCCESS after the buffer is cleared.
 123:comms.c       ****  */
 124:comms.c       **** RC_t streamRB_flush(StreamingRB_t *rb) 
 125:comms.c       **** {
 245              		.loc 1 125 0
 246              		.cfi_startproc
 247              		@ args = 0, pretend = 0, frame = 0
 248              		@ frame_needed = 0, uses_anonymous_args = 0
 249              	.LVL17:
 250 0000 38B5     		push	{r3, r4, r5, lr}
 251              		.cfi_def_cfa_offset 16
 252              		.cfi_offset 3, -16
 253              		.cfi_offset 4, -12
 254              		.cfi_offset 5, -8
 255              		.cfi_offset 14, -4
 256 0002 0446     		mov	r4, r0
 126:comms.c       ****     GetResource(res_stream);
 257              		.loc 1 126 0
ARM GAS  C:\Users\agila\AppData\Local\Temp\ccxXs3Ca.s 			page 8


 258 0004 0120     		movs	r0, #1
 259              	.LVL18:
 260 0006 FFF7FEFF 		bl	EE_oo_GetResource
 261              	.LVL19:
 127:comms.c       ****     rb->readIdx = rb->writeIdx;   // Reader catches writer = empty
 262              		.loc 1 127 0
 263 000a B4F80231 		ldrh	r3, [r4, #258]
 264 000e 9BB2     		uxth	r3, r3
 265 0010 A4F80031 		strh	r3, [r4, #256]	@ movhi
 128:comms.c       ****     rb->fillLevel = 0;            // Force empty
 266              		.loc 1 128 0
 267 0014 0025     		movs	r5, #0
 268 0016 A4F80451 		strh	r5, [r4, #260]	@ movhi
 129:comms.c       ****     ReleaseResource(res_stream);
 269              		.loc 1 129 0
 270 001a 0120     		movs	r0, #1
 271 001c FFF7FEFF 		bl	EE_oo_ReleaseResource
 272              	.LVL20:
 130:comms.c       ****     return RC_SUCCESS;
 131:comms.c       **** }
 273              		.loc 1 131 0
 274 0020 2846     		mov	r0, r5
 275 0022 38BD     		pop	{r3, r4, r5, pc}
 276              		.cfi_endproc
 277              	.LFE114:
 278              		.size	streamRB_flush, .-streamRB_flush
 279              		.section	.text.dynRB_init,"ax",%progbits
 280              		.align	2
 281              		.global	dynRB_init
 282              		.thumb
 283              		.thumb_func
 284              		.type	dynRB_init, %function
 285              	dynRB_init:
 286              	.LFB115:
 132:comms.c       **** 
 133:comms.c       **** /**
 134:comms.c       ****  * Initialize dynamic payload ring buffer instance.
 135:comms.c       ****  * 
 136:comms.c       ****  * @param rb Pointer to dynamic payload ring buffer object (IN/OUT).
 137:comms.c       ****  * @return RC_SUCCESS on successful initialization.
 138:comms.c       ****  */
 139:comms.c       **** RC_t dynRB_init(DynPayloadRB_t *rb) 
 140:comms.c       **** {
 287              		.loc 1 140 0
 288              		.cfi_startproc
 289              		@ args = 0, pretend = 0, frame = 0
 290              		@ frame_needed = 0, uses_anonymous_args = 0
 291              		@ link register save eliminated.
 292              	.LVL21:
 141:comms.c       ****     rb->readIdx_tft = rb->readIdx_uart = rb->writeIdx = rb->fillLevel = 0;
 293              		.loc 1 141 0
 294 0000 0023     		movs	r3, #0
 295 0002 A0F86634 		strh	r3, [r0, #1126]	@ movhi
 296 0006 A0F86434 		strh	r3, [r0, #1124]	@ movhi
 297 000a A0F86234 		strh	r3, [r0, #1122]	@ movhi
 298 000e A0F86034 		strh	r3, [r0, #1120]	@ movhi
 142:comms.c       ****     return RC_SUCCESS;
ARM GAS  C:\Users\agila\AppData\Local\Temp\ccxXs3Ca.s 			page 9


 143:comms.c       **** }
 299              		.loc 1 143 0
 300 0012 1846     		mov	r0, r3
 301              	.LVL22:
 302 0014 7047     		bx	lr
 303              		.cfi_endproc
 304              	.LFE115:
 305              		.size	dynRB_init, .-dynRB_init
 306 0016 00BF     		.section	.text.dynRB_send,"ax",%progbits
 307              		.align	2
 308              		.global	dynRB_send
 309              		.thumb
 310              		.thumb_func
 311              		.type	dynRB_send, %function
 312              	dynRB_send:
 313              	.LFB116:
 144:comms.c       **** 
 145:comms.c       **** /**
 146:comms.c       ****  * Enqueue a payload into the dynamic payload ring buffer.
 147:comms.c       ****  * 
 148:comms.c       ****  * Stores the given data together with metadata identifying the consumer,
 149:comms.c       ****  * event and target task, then triggers the corresponding event.
 150:comms.c       ****  * 
 151:comms.c       ****  * @param rb      Pointer to dynamic payload ring buffer instance (IN/OUT).
 152:comms.c       ****  * @param data    Pointer to data buffer to be enqueued (IN).
 153:comms.c       ****  * @param len     Length of the payload in bytes (IN).
 154:comms.c       ****  * @param msg_id  Identifier of target consumer (e.g. TFT_ID, UART_ID) (IN).
 155:comms.c       ****  * @param ev      Event mask to be set for the target task (IN).
 156:comms.c       ****  * @param tsk     Task identifier that should receive the event (IN).
 157:comms.c       ****  * @return RC_SUCCESS if enqueued, RC_ERROR if buffer is full or size exceeds limit.
 158:comms.c       ****  */
 159:comms.c       **** RC_t dynRB_send(DynPayloadRB_t *rb, uint8_t *data, uint16_t len, dyn_id_t msg_id, EventMaskType ev,
 160:comms.c       **** {
 314              		.loc 1 160 0
 315              		.cfi_startproc
 316              		@ args = 8, pretend = 0, frame = 0
 317              		@ frame_needed = 0, uses_anonymous_args = 0
 318              	.LVL23:
 161:comms.c       ****     if (len > DYN_MAX_SIZE || rb->fillLevel >= DYN_SLOTS) 
 319              		.loc 1 161 0
 320 0000 802A     		cmp	r2, #128
 321 0002 38D8     		bhi	.L21
 160:comms.c       ****     if (len > DYN_MAX_SIZE || rb->fillLevel >= DYN_SLOTS) 
 322              		.loc 1 160 0 discriminator 1
 323 0004 2DE9F041 		push	{r4, r5, r6, r7, r8, lr}
 324              		.cfi_def_cfa_offset 24
 325              		.cfi_offset 4, -24
 326              		.cfi_offset 5, -20
 327              		.cfi_offset 6, -16
 328              		.cfi_offset 7, -12
 329              		.cfi_offset 8, -8
 330              		.cfi_offset 14, -4
 331              		.loc 1 161 0 discriminator 1
 332 0008 B0F86644 		ldrh	r4, [r0, #1126]
 333 000c 072C     		cmp	r4, #7
 334 000e 35D8     		bhi	.L22
 335 0010 9846     		mov	r8, r3
ARM GAS  C:\Users\agila\AppData\Local\Temp\ccxXs3Ca.s 			page 10


 336 0012 1746     		mov	r7, r2
 337 0014 0E46     		mov	r6, r1
 338 0016 0446     		mov	r4, r0
 162:comms.c       ****     {
 163:comms.c       ****         return RC_ERROR;
 164:comms.c       ****     }
 165:comms.c       ****     
 166:comms.c       ****     GetResource(res_dyn);
 339              		.loc 1 166 0
 340 0018 0020     		movs	r0, #0
 341              	.LVL24:
 342 001a FFF7FEFF 		bl	EE_oo_GetResource
 343              	.LVL25:
 167:comms.c       ****     dyn_payload_t *slot = &rb->slots[rb->writeIdx];
 344              		.loc 1 167 0
 345 001e B4F86434 		ldrh	r3, [r4, #1124]
 346              	.LVL26:
 168:comms.c       ****     memcpy(slot->payload, data, len);
 347              		.loc 1 168 0
 348 0022 8C25     		movs	r5, #140
 349 0024 05FB0345 		mla	r5, r5, r3, r4
 350              	.LVL27:
 351 0028 3A46     		mov	r2, r7
 352 002a 3146     		mov	r1, r6
 353 002c 2846     		mov	r0, r5
 354 002e FFF7FEFF 		bl	memcpy
 355              	.LVL28:
 169:comms.c       ****     slot->payload_len = len;
 356              		.loc 1 169 0
 357 0032 A5F88070 		strh	r7, [r5, #128]	@ movhi
 170:comms.c       ****     slot->msg_id = msg_id;
 358              		.loc 1 170 0
 359 0036 85F88280 		strb	r8, [r5, #130]
 171:comms.c       ****     slot->event = ev;
 360              		.loc 1 171 0
 361 003a 069B     		ldr	r3, [sp, #24]
 362 003c C5F88430 		str	r3, [r5, #132]
 172:comms.c       ****     slot->task = tsk;
 363              		.loc 1 172 0
 364 0040 9DF81C30 		ldrb	r3, [sp, #28]	@ zero_extendqisi2
 365 0044 85F88830 		strb	r3, [r5, #136]
 173:comms.c       ****     
 174:comms.c       ****     rb->writeIdx = rb->writeIdx % DYN_SLOTS;
 366              		.loc 1 174 0
 367 0048 B4F86434 		ldrh	r3, [r4, #1124]
 368 004c 03F00703 		and	r3, r3, #7
 369 0050 A4F86434 		strh	r3, [r4, #1124]	@ movhi
 175:comms.c       ****     rb->fillLevel++;
 370              		.loc 1 175 0
 371 0054 B4F86634 		ldrh	r3, [r4, #1126]
 372 0058 0133     		adds	r3, r3, #1
 373 005a A4F86634 		strh	r3, [r4, #1126]	@ movhi
 176:comms.c       ****     ReleaseResource(res_dyn);
 374              		.loc 1 176 0
 375 005e 0020     		movs	r0, #0
 376 0060 FFF7FEFF 		bl	EE_oo_ReleaseResource
 377              	.LVL29:
ARM GAS  C:\Users\agila\AppData\Local\Temp\ccxXs3Ca.s 			page 11


 177:comms.c       ****     
 178:comms.c       ****     /* Notify the destination task that a new payload is available. */
 179:comms.c       ****     SetEvent(slot->task, slot->event);
 378              		.loc 1 179 0
 379 0064 D5F88410 		ldr	r1, [r5, #132]
 380 0068 95F88800 		ldrb	r0, [r5, #136]	@ zero_extendqisi2
 381 006c FFF7FEFF 		bl	EE_oo_SetEvent
 382              	.LVL30:
 180:comms.c       ****     
 181:comms.c       ****     return RC_SUCCESS;
 383              		.loc 1 181 0
 384 0070 0020     		movs	r0, #0
 385 0072 BDE8F081 		pop	{r4, r5, r6, r7, r8, pc}
 386              	.LVL31:
 387              	.L21:
 388              		.cfi_def_cfa_offset 0
 389              		.cfi_restore 4
 390              		.cfi_restore 5
 391              		.cfi_restore 6
 392              		.cfi_restore 7
 393              		.cfi_restore 8
 394              		.cfi_restore 14
 163:comms.c       ****     }
 395              		.loc 1 163 0
 396 0076 4FF0FF30 		mov	r0, #-1
 397              	.LVL32:
 182:comms.c       **** }
 398              		.loc 1 182 0
 399 007a 7047     		bx	lr
 400              	.LVL33:
 401              	.L22:
 402              		.cfi_def_cfa_offset 24
 403              		.cfi_offset 4, -24
 404              		.cfi_offset 5, -20
 405              		.cfi_offset 6, -16
 406              		.cfi_offset 7, -12
 407              		.cfi_offset 8, -8
 408              		.cfi_offset 14, -4
 163:comms.c       ****     }
 409              		.loc 1 163 0
 410 007c 4FF0FF30 		mov	r0, #-1
 411              	.LVL34:
 412              		.loc 1 182 0
 413 0080 BDE8F081 		pop	{r4, r5, r6, r7, r8, pc}
 414              		.cfi_endproc
 415              	.LFE116:
 416              		.size	dynRB_send, .-dynRB_send
 417              		.section	.text.dynRB_receive,"ax",%progbits
 418              		.align	2
 419              		.global	dynRB_receive
 420              		.thumb
 421              		.thumb_func
 422              		.type	dynRB_receive, %function
 423              	dynRB_receive:
 424              	.LFB117:
 183:comms.c       **** 
 184:comms.c       **** /**
ARM GAS  C:\Users\agila\AppData\Local\Temp\ccxXs3Ca.s 			page 12


 185:comms.c       ****  * Receive a payload from the dynamic payload ring buffer.
 186:comms.c       ****  * 
 187:comms.c       ****  * Selects the appropriate read index based on consumer ID, copies the
 188:comms.c       ****  * payload into the destination buffer and updates read indices and fill level.
 189:comms.c       ****  * 
 190:comms.c       ****  * @param rb          Pointer to dynamic payload ring buffer instance (IN/OUT).
 191:comms.c       ****  * @param consumer_id Identifier of the consumer (TFT_ID or UART_ID) (IN).
 192:comms.c       ****  * @param data        Destination buffer for received payload (OUT).
 193:comms.c       ****  * @param len         Pointer to variable receiving the payload length (OUT).
 194:comms.c       ****  * @return RC_SUCCESS if a message was received, RC_ERROR_BUFFER_EMTPY if none.
 195:comms.c       ****  */
 196:comms.c       **** RC_t dynRB_receive(DynPayloadRB_t *rb, dyn_id_t consumer_id, uint8_t *data, uint16_t *len) 
 197:comms.c       **** {
 425              		.loc 1 197 0
 426              		.cfi_startproc
 427              		@ args = 0, pretend = 0, frame = 0
 428              		@ frame_needed = 0, uses_anonymous_args = 0
 429              	.LVL35:
 430 0000 F8B5     		push	{r3, r4, r5, r6, r7, lr}
 431              		.cfi_def_cfa_offset 24
 432              		.cfi_offset 3, -24
 433              		.cfi_offset 4, -20
 434              		.cfi_offset 5, -16
 435              		.cfi_offset 6, -12
 436              		.cfi_offset 7, -8
 437              		.cfi_offset 14, -4
 438 0002 0446     		mov	r4, r0
 439 0004 0D46     		mov	r5, r1
 440 0006 1646     		mov	r6, r2
 441 0008 1F46     		mov	r7, r3
 198:comms.c       ****     GetResource(res_dyn);
 442              		.loc 1 198 0
 443 000a 0020     		movs	r0, #0
 444              	.LVL36:
 445 000c FFF7FEFF 		bl	EE_oo_GetResource
 446              	.LVL37:
 199:comms.c       ****     uint16_t *readIdx = (consumer_id == TFT_ID) ? &rb->readIdx_tft : &rb->readIdx_uart;
 447              		.loc 1 199 0
 448 0010 012D     		cmp	r5, #1
 449 0012 02D1     		bne	.L25
 450              		.loc 1 199 0 is_stmt 0 discriminator 1
 451 0014 04F58C65 		add	r5, r4, #1120
 452 0018 01E0     		b	.L26
 453              	.L25:
 454              		.loc 1 199 0 discriminator 2
 455 001a 04F26245 		addw	r5, r4, #1122
 456              	.L26:
 457              	.LVL38:
 200:comms.c       ****     
 201:comms.c       ****     if (rb->fillLevel == 0) {
 458              		.loc 1 201 0 is_stmt 1 discriminator 4
 459 001e B4F86634 		ldrh	r3, [r4, #1126]
 460 0022 2BB9     		cbnz	r3, .L27
 202:comms.c       ****         ReleaseResource(res_dyn);
 461              		.loc 1 202 0
 462 0024 0020     		movs	r0, #0
 463 0026 FFF7FEFF 		bl	EE_oo_ReleaseResource
ARM GAS  C:\Users\agila\AppData\Local\Temp\ccxXs3Ca.s 			page 13


 464              	.LVL39:
 203:comms.c       ****         return RC_ERROR_BUFFER_EMTPY;   // RC_ERROR_EMPTY
 465              		.loc 1 203 0
 466 002a 6FF00800 		mvn	r0, #8
 467 002e F8BD     		pop	{r3, r4, r5, r6, r7, pc}
 468              	.LVL40:
 469              	.L27:
 204:comms.c       ****     }
 205:comms.c       ****     
 206:comms.c       ****     dyn_payload_t *slot = &rb->slots[*readIdx];
 470              		.loc 1 206 0
 471 0030 2B88     		ldrh	r3, [r5]
 472              	.LVL41:
 207:comms.c       ****     *len = slot->payload_len;
 473              		.loc 1 207 0
 474 0032 8C21     		movs	r1, #140
 475 0034 01FB0341 		mla	r1, r1, r3, r4
 476              	.LVL42:
 477 0038 B1F88020 		ldrh	r2, [r1, #128]
 478 003c 3A80     		strh	r2, [r7]	@ movhi
 208:comms.c       ****     memcpy(data, slot->payload, *len);
 479              		.loc 1 208 0
 480 003e 3046     		mov	r0, r6
 481 0040 FFF7FEFF 		bl	memcpy
 482              	.LVL43:
 209:comms.c       ****     
 210:comms.c       ****     *readIdx = *readIdx % DYN_SLOTS;
 483              		.loc 1 210 0
 484 0044 2B88     		ldrh	r3, [r5]
 485 0046 03F00703 		and	r3, r3, #7
 486 004a 2B80     		strh	r3, [r5]	@ movhi
 211:comms.c       ****     rb->fillLevel--;
 487              		.loc 1 211 0
 488 004c B4F86634 		ldrh	r3, [r4, #1126]
 489 0050 013B     		subs	r3, r3, #1
 490 0052 A4F86634 		strh	r3, [r4, #1126]	@ movhi
 212:comms.c       ****     ReleaseResource(res_dyn);
 491              		.loc 1 212 0
 492 0056 0020     		movs	r0, #0
 493 0058 FFF7FEFF 		bl	EE_oo_ReleaseResource
 494              	.LVL44:
 213:comms.c       ****     return RC_SUCCESS;
 495              		.loc 1 213 0
 496 005c 0020     		movs	r0, #0
 214:comms.c       **** }
 497              		.loc 1 214 0
 498 005e F8BD     		pop	{r3, r4, r5, r6, r7, pc}
 499              		.cfi_endproc
 500              	.LFE117:
 501              		.size	dynRB_receive, .-dynRB_receive
 502              		.section	.text.dynRB_flush,"ax",%progbits
 503              		.align	2
 504              		.global	dynRB_flush
 505              		.thumb
 506              		.thumb_func
 507              		.type	dynRB_flush, %function
 508              	dynRB_flush:
ARM GAS  C:\Users\agila\AppData\Local\Temp\ccxXs3Ca.s 			page 14


 509              	.LFB118:
 215:comms.c       **** 
 216:comms.c       **** /**
 217:comms.c       ****  * Flush the dynamic payload ring buffer.
 218:comms.c       ****  * 
 219:comms.c       ****  * Sets both TFT and UART read indices equal to the write index, drops
 220:comms.c       ****  * all pending messages and resets the fill level.
 221:comms.c       ****  * 
 222:comms.c       ****  * @param rb Pointer to dynamic payload ring buffer instance (IN/OUT).
 223:comms.c       ****  * @return RC_SUCCESS after the buffer is cleared.
 224:comms.c       ****  */
 225:comms.c       **** RC_t dynRB_flush(DynPayloadRB_t *rb) 
 226:comms.c       **** {
 510              		.loc 1 226 0
 511              		.cfi_startproc
 512              		@ args = 0, pretend = 0, frame = 0
 513              		@ frame_needed = 0, uses_anonymous_args = 0
 514              	.LVL45:
 515 0000 38B5     		push	{r3, r4, r5, lr}
 516              		.cfi_def_cfa_offset 16
 517              		.cfi_offset 3, -16
 518              		.cfi_offset 4, -12
 519              		.cfi_offset 5, -8
 520              		.cfi_offset 14, -4
 521 0002 0446     		mov	r4, r0
 227:comms.c       ****     GetResource(res_dyn);
 522              		.loc 1 227 0
 523 0004 0020     		movs	r0, #0
 524              	.LVL46:
 525 0006 FFF7FEFF 		bl	EE_oo_GetResource
 526              	.LVL47:
 228:comms.c       ****     rb->readIdx_tft = rb->writeIdx;   // TFT catches writer
 527              		.loc 1 228 0
 528 000a B4F86434 		ldrh	r3, [r4, #1124]
 529 000e A4F86034 		strh	r3, [r4, #1120]	@ movhi
 229:comms.c       ****     rb->readIdx_uart = rb->writeIdx;  // UART catches writer
 530              		.loc 1 229 0
 531 0012 A4F86234 		strh	r3, [r4, #1122]	@ movhi
 230:comms.c       ****     rb->fillLevel = 0;
 532              		.loc 1 230 0
 533 0016 0025     		movs	r5, #0
 534 0018 A4F86654 		strh	r5, [r4, #1126]	@ movhi
 231:comms.c       ****     ReleaseResource(res_dyn);
 535              		.loc 1 231 0
 536 001c 2846     		mov	r0, r5
 537 001e FFF7FEFF 		bl	EE_oo_ReleaseResource
 538              	.LVL48:
 232:comms.c       ****     return RC_SUCCESS;
 233:comms.c       **** }
 539              		.loc 1 233 0
 540 0022 2846     		mov	r0, r5
 541 0024 38BD     		pop	{r3, r4, r5, pc}
 542              		.cfi_endproc
 543              	.LFE118:
 544              		.size	dynRB_flush, .-dynRB_flush
 545 0026 00BF     		.section	.text.RB_flush_all,"ax",%progbits
 546              		.align	2
ARM GAS  C:\Users\agila\AppData\Local\Temp\ccxXs3Ca.s 			page 15


 547              		.global	RB_flush_all
 548              		.thumb
 549              		.thumb_func
 550              		.type	RB_flush_all, %function
 551              	RB_flush_all:
 552              	.LFB119:
 234:comms.c       **** 
 235:comms.c       **** /**
 236:comms.c       ****  * Flush both streaming and dynamic buffers.
 237:comms.c       ****  * 
 238:comms.c       ****  * Convenience function to clear all communication-related buffers and
 239:comms.c       ****  * print a diagnostic message over UART.
 240:comms.c       ****  */
 241:comms.c       **** void RB_flush_all() 
 242:comms.c       **** {
 553              		.loc 1 242 0
 554              		.cfi_startproc
 555              		@ args = 0, pretend = 0, frame = 0
 556              		@ frame_needed = 0, uses_anonymous_args = 0
 557 0000 08B5     		push	{r3, lr}
 558              		.cfi_def_cfa_offset 8
 559              		.cfi_offset 3, -8
 560              		.cfi_offset 14, -4
 243:comms.c       ****     streamRB_flush(&uartRB);      // Clear UART RX
 561              		.loc 1 243 0
 562 0002 0548     		ldr	r0, .L34
 563 0004 FFF7FEFF 		bl	streamRB_flush
 564              	.LVL49:
 244:comms.c       ****     dynRB_flush(&sharedRB);       // Clear shared payload
 565              		.loc 1 244 0
 566 0008 0448     		ldr	r0, .L34+4
 567 000a FFF7FEFF 		bl	dynRB_flush
 568              	.LVL50:
 245:comms.c       ****     UART_LOG_PutString("\r\nAll Buffers flushed!\r\n");
 569              		.loc 1 245 0
 570 000e 0448     		ldr	r0, .L34+8
 571 0010 FFF7FEFF 		bl	UART_LOG_PutString
 572              	.LVL51:
 573 0014 08BD     		pop	{r3, pc}
 574              	.L35:
 575 0016 00BF     		.align	2
 576              	.L34:
 577 0018 00000000 		.word	uartRB
 578 001c 00000000 		.word	sharedRB
 579 0020 00000000 		.word	.LC0
 580              		.cfi_endproc
 581              	.LFE119:
 582              		.size	RB_flush_all, .-RB_flush_all
 583              		.section	.text.UART_LOG_PutInt,"ax",%progbits
 584              		.align	2
 585              		.global	UART_LOG_PutInt
 586              		.thumb
 587              		.thumb_func
 588              		.type	UART_LOG_PutInt, %function
 589              	UART_LOG_PutInt:
 590              	.LFB120:
 246:comms.c       **** }
ARM GAS  C:\Users\agila\AppData\Local\Temp\ccxXs3Ca.s 			page 16


 247:comms.c       **** 
 248:comms.c       **** /**
 249:comms.c       ****  * Print a 16-bit unsigned integer as ASCII via UART_LOG.
 250:comms.c       ****  * 
 251:comms.c       ****  * Performs decimal conversion into a local buffer, reverses the character
 252:comms.c       ****  * order and transmits the resulting string using UART_LOG_PutString().
 253:comms.c       ****  * 
 254:comms.c       ****  * @param num Unsigned integer value to be printed (IN).
 255:comms.c       ****  */
 256:comms.c       **** void UART_LOG_PutInt(uint16_t num) {
 591              		.loc 1 256 0
 592              		.cfi_startproc
 593              		@ args = 0, pretend = 0, frame = 8
 594              		@ frame_needed = 0, uses_anonymous_args = 0
 595              	.LVL52:
 596 0000 70B5     		push	{r4, r5, r6, lr}
 597              		.cfi_def_cfa_offset 16
 598              		.cfi_offset 4, -16
 599              		.cfi_offset 5, -12
 600              		.cfi_offset 6, -8
 601              		.cfi_offset 14, -4
 602 0002 82B0     		sub	sp, sp, #8
 603              		.cfi_def_cfa_offset 24
 257:comms.c       ****     if (num == 0) {
 604              		.loc 1 257 0
 605 0004 A0B9     		cbnz	r0, .L42
 258:comms.c       ****         UART_LOG_PutString("0");
 606              		.loc 1 258 0
 607 0006 1B48     		ldr	r0, .L44
 608              	.LVL53:
 609 0008 FFF7FEFF 		bl	UART_LOG_PutString
 610              	.LVL54:
 611 000c 30E0     		b	.L36
 612              	.LVL55:
 613              	.L39:
 259:comms.c       ****         return;
 260:comms.c       ****     }
 261:comms.c       ****     char buf[6];
 262:comms.c       ****     uint8_t idx = 0;
 263:comms.c       ****     while (num > 0) {
 264:comms.c       ****         buf[idx++] = '0' + (num % 10);
 614              		.loc 1 264 0
 615 000e 4D1C     		adds	r5, r1, #1
 616              	.LVL56:
 617 0010 02AA     		add	r2, sp, #8
 618 0012 1144     		add	r1, r1, r2
 619 0014 184A     		ldr	r2, .L44+4
 620 0016 A2FB0302 		umull	r0, r2, r2, r3
 621 001a D208     		lsrs	r2, r2, #3
 622 001c 02EB8204 		add	r4, r2, r2, lsl #2
 623 0020 6000     		lsls	r0, r4, #1
 624 0022 1B1A     		subs	r3, r3, r0
 625              	.LVL57:
 626 0024 3033     		adds	r3, r3, #48
 627 0026 01F8083C 		strb	r3, [r1, #-8]
 265:comms.c       ****         num /= 10;
 628              		.loc 1 265 0
ARM GAS  C:\Users\agila\AppData\Local\Temp\ccxXs3Ca.s 			page 17


 629 002a 93B2     		uxth	r3, r2
 630              	.LVL58:
 264:comms.c       ****         num /= 10;
 631              		.loc 1 264 0
 632 002c E9B2     		uxtb	r1, r5
 633 002e 01E0     		b	.L37
 634              	.LVL59:
 635              	.L42:
 636 0030 0346     		mov	r3, r0
 637 0032 0021     		movs	r1, #0
 638              	.LVL60:
 639              	.L37:
 263:comms.c       ****         buf[idx++] = '0' + (num % 10);
 640              		.loc 1 263 0
 641 0034 002B     		cmp	r3, #0
 642 0036 EAD1     		bne	.L39
 266:comms.c       ****     }
 267:comms.c       ****     buf[idx] = '\0';
 643              		.loc 1 267 0
 644 0038 0E46     		mov	r6, r1
 645 003a 02AA     		add	r2, sp, #8
 646 003c 0A44     		add	r2, r2, r1
 647 003e 02F8083C 		strb	r3, [r2, #-8]
 648              	.LVL61:
 649              	.LBB3:
 268:comms.c       ****     /* Reverse string in-place to restore correct digit order. */
 269:comms.c       ****     for (uint8_t i = 0; i < idx / 2; i++) {
 650              		.loc 1 269 0
 651 0042 0FE0     		b	.L40
 652              	.LVL62:
 653              	.L41:
 654              	.LBB4:
 270:comms.c       ****         char temp = buf[i];
 655              		.loc 1 270 0 discriminator 3
 656 0044 02AA     		add	r2, sp, #8
 657 0046 D018     		adds	r0, r2, r3
 658 0048 10F8084C 		ldrb	r4, [r0, #-8]	@ zero_extendqisi2
 659              	.LVL63:
 271:comms.c       ****         buf[i] = buf[idx - 1 - i];
 660              		.loc 1 271 0 discriminator 3
 661 004c 721E     		subs	r2, r6, #1
 662 004e D21A     		subs	r2, r2, r3
 663 0050 02AD     		add	r5, sp, #8
 664 0052 2A44     		add	r2, r2, r5
 665 0054 12F8085C 		ldrb	r5, [r2, #-8]	@ zero_extendqisi2
 666 0058 00F8085C 		strb	r5, [r0, #-8]
 272:comms.c       ****         buf[idx - 1 - i] = temp;
 667              		.loc 1 272 0 discriminator 3
 668 005c 02F8084C 		strb	r4, [r2, #-8]
 669              	.LBE4:
 269:comms.c       ****         char temp = buf[i];
 670              		.loc 1 269 0 discriminator 3
 671 0060 0133     		adds	r3, r3, #1
 672              	.LVL64:
 673 0062 DBB2     		uxtb	r3, r3
 674              	.LVL65:
 675              	.L40:
ARM GAS  C:\Users\agila\AppData\Local\Temp\ccxXs3Ca.s 			page 18


 269:comms.c       ****         char temp = buf[i];
 676              		.loc 1 269 0 is_stmt 0 discriminator 1
 677 0064 B3EB510F 		cmp	r3, r1, lsr #1
 678 0068 ECD3     		bcc	.L41
 679              	.LBE3:
 273:comms.c       ****     }
 274:comms.c       ****     UART_LOG_PutString(buf);
 680              		.loc 1 274 0 is_stmt 1
 681 006a 6846     		mov	r0, sp
 682 006c FFF7FEFF 		bl	UART_LOG_PutString
 683              	.LVL66:
 684              	.L36:
 275:comms.c       **** }
 685              		.loc 1 275 0
 686 0070 02B0     		add	sp, sp, #8
 687              		.cfi_def_cfa_offset 16
 688              		@ sp needed
 689 0072 70BD     		pop	{r4, r5, r6, pc}
 690              	.L45:
 691              		.align	2
 692              	.L44:
 693 0074 1C000000 		.word	.LC1
 694 0078 CDCCCCCC 		.word	-858993459
 695              		.cfi_endproc
 696              	.LFE120:
 697              		.size	UART_LOG_PutInt, .-UART_LOG_PutInt
 698              		.section	.rodata.str1.4,"aMS",%progbits,1
 699              		.align	2
 700              	.LC0:
 701 0000 0D0A416C 		.ascii	"\015\012All Buffers flushed!\015\012\000"
 701      6C204275 
 701      66666572 
 701      7320666C 
 701      75736865 
 702 0019 000000   		.space	3
 703              	.LC1:
 704 001c 3000     		.ascii	"0\000"
 705              		.text
 706              	.Letext0:
 707              		.file 2 "c:\\h_da softwares & projects\\psoc creator\\4.4\\psoc creator\\import\\gnu\\arm\\5.4.1\\
 708              		.file 3 "c:\\h_da softwares & projects\\psoc creator\\4.4\\psoc creator\\import\\gnu\\arm\\5.4.1\\
 709              		.file 4 "Generated_Source\\PSoC5/ErikaOS_common_ee_types.inc"
 710              		.file 5 "Generated_Source\\PSoC5/ErikaOS_cortex_mx_ee_cpu.inc"
 711              		.file 6 "Generated_Source\\PSoC5/ErikaOS_ee_oo_common.inc"
 712              		.file 7 ".\\source\\bsw/global.h"
 713              		.file 8 "comms.h"
 714              		.file 9 "Generated_Source\\PSoC5/ErikaOS_ee_oo_intfunc.inc"
 715              		.file 10 "Generated_Source\\PSoC5/ErikaOS_cortex_mx_ee_context.inc"
 716              		.file 11 "Generated_Source\\PSoC5/ErikaOS_common_ee_primitives.inc"
 717              		.file 12 "Generated_Source\\PSoC5/core_cm3.h"
 718              		.file 13 "Generated_Source\\PSoC5/ErikaOS_ee_oo_kernel.inc"
 719              		.file 14 "Generated_Source\\PSoC5/UART_LOG.h"