ARM GAS  C:\Users\agila\AppData\Local\Temp\cck4bOkV.s 			page 1


   1              		.syntax unified
   2              		.cpu cortex-m3
   3              		.fpu softvfp
   4              		.eabi_attribute 20, 1
   5              		.eabi_attribute 21, 1
   6              		.eabi_attribute 23, 3
   7              		.eabi_attribute 24, 1
   8              		.eabi_attribute 25, 1
   9              		.eabi_attribute 26, 1
  10              		.eabi_attribute 30, 1
  11              		.eabi_attribute 34, 1
  12              		.eabi_attribute 18, 4
  13              		.thumb
  14              		.syntax unified
  15              		.file	"ErikaOS_ee_ulockres.c"
  16              		.text
  17              	.Ltext0:
  18              		.cfi_sections	.debug_frame
  19              		.section	.text.EE_oo_ReleaseResource,"ax",%progbits
  20              		.align	2
  21              		.global	EE_oo_ReleaseResource
  22              		.thumb
  23              		.thumb_func
  24              		.type	EE_oo_ReleaseResource, %function
  25              	EE_oo_ReleaseResource:
  26              	.LFB71:
  27              		.file 1 "Generated_Source\\PSoC5\\ErikaOS_ee_ulockres.c"
   1:Generated_Source\PSoC5/ErikaOS_ee_ulockres.c **** /* ###*B*###
   2:Generated_Source\PSoC5/ErikaOS_ee_ulockres.c ****  * ERIKA Enterprise - a tiny RTOS for small microcontrollers
   3:Generated_Source\PSoC5/ErikaOS_ee_ulockres.c ****  *
   4:Generated_Source\PSoC5/ErikaOS_ee_ulockres.c ****  * Copyright (C) 2002-2008  Evidence Srl
   5:Generated_Source\PSoC5/ErikaOS_ee_ulockres.c ****  *
   6:Generated_Source\PSoC5/ErikaOS_ee_ulockres.c ****  * This file is part of ERIKA Enterprise.
   7:Generated_Source\PSoC5/ErikaOS_ee_ulockres.c ****  *
   8:Generated_Source\PSoC5/ErikaOS_ee_ulockres.c ****  * ERIKA Enterprise is free software; you can redistribute it
   9:Generated_Source\PSoC5/ErikaOS_ee_ulockres.c ****  * and/or modify it under the terms of the GNU General Public License
  10:Generated_Source\PSoC5/ErikaOS_ee_ulockres.c ****  * version 2 as published by the Free Software Foundation, 
  11:Generated_Source\PSoC5/ErikaOS_ee_ulockres.c ****  * (with a special exception described below).
  12:Generated_Source\PSoC5/ErikaOS_ee_ulockres.c ****  *
  13:Generated_Source\PSoC5/ErikaOS_ee_ulockres.c ****  * Linking this code statically or dynamically with other modules is
  14:Generated_Source\PSoC5/ErikaOS_ee_ulockres.c ****  * making a combined work based on this code.  Thus, the terms and
  15:Generated_Source\PSoC5/ErikaOS_ee_ulockres.c ****  * conditions of the GNU General Public License cover the whole
  16:Generated_Source\PSoC5/ErikaOS_ee_ulockres.c ****  * combination.
  17:Generated_Source\PSoC5/ErikaOS_ee_ulockres.c ****  *
  18:Generated_Source\PSoC5/ErikaOS_ee_ulockres.c ****  * As a special exception, the copyright holders of this library give you
  19:Generated_Source\PSoC5/ErikaOS_ee_ulockres.c ****  * permission to link this code with independent modules to produce an
  20:Generated_Source\PSoC5/ErikaOS_ee_ulockres.c ****  * executable, regardless of the license terms of these independent
  21:Generated_Source\PSoC5/ErikaOS_ee_ulockres.c ****  * modules, and to copy and distribute the resulting executable under
  22:Generated_Source\PSoC5/ErikaOS_ee_ulockres.c ****  * terms of your choice, provided that you also meet, for each linked
  23:Generated_Source\PSoC5/ErikaOS_ee_ulockres.c ****  * independent module, the terms and conditions of the license of that
  24:Generated_Source\PSoC5/ErikaOS_ee_ulockres.c ****  * module.  An independent module is a module which is not derived from
  25:Generated_Source\PSoC5/ErikaOS_ee_ulockres.c ****  * or based on this library.  If you modify this code, you may extend
  26:Generated_Source\PSoC5/ErikaOS_ee_ulockres.c ****  * this exception to your version of the code, but you are not
  27:Generated_Source\PSoC5/ErikaOS_ee_ulockres.c ****  * obligated to do so.  If you do not wish to do so, delete this
  28:Generated_Source\PSoC5/ErikaOS_ee_ulockres.c ****  * exception statement from your version.
  29:Generated_Source\PSoC5/ErikaOS_ee_ulockres.c ****  *
  30:Generated_Source\PSoC5/ErikaOS_ee_ulockres.c ****  * ERIKA Enterprise is distributed in the hope that it will be
ARM GAS  C:\Users\agila\AppData\Local\Temp\cck4bOkV.s 			page 2


  31:Generated_Source\PSoC5/ErikaOS_ee_ulockres.c ****  * useful, but WITHOUT ANY WARRANTY; without even the implied warranty
  32:Generated_Source\PSoC5/ErikaOS_ee_ulockres.c ****  * of MERCHANTABILITY or FITNESS FOR A PARTICULAR PURPOSE.  See the
  33:Generated_Source\PSoC5/ErikaOS_ee_ulockres.c ****  * GNU General Public License version 2 for more details.
  34:Generated_Source\PSoC5/ErikaOS_ee_ulockres.c ****  *
  35:Generated_Source\PSoC5/ErikaOS_ee_ulockres.c ****  * You should have received a copy of the GNU General Public License
  36:Generated_Source\PSoC5/ErikaOS_ee_ulockres.c ****  * version 2 along with ERIKA Enterprise; if not, write to the
  37:Generated_Source\PSoC5/ErikaOS_ee_ulockres.c ****  * Free Software Foundation, Inc., 51 Franklin Street, Fifth Floor,
  38:Generated_Source\PSoC5/ErikaOS_ee_ulockres.c ****  * Boston, MA 02110-1301 USA.
  39:Generated_Source\PSoC5/ErikaOS_ee_ulockres.c ****  * ###*E*### */
  40:Generated_Source\PSoC5/ErikaOS_ee_ulockres.c **** 
  41:Generated_Source\PSoC5/ErikaOS_ee_ulockres.c **** /*
  42:Generated_Source\PSoC5/ErikaOS_ee_ulockres.c ****  * Author: 2002 Paolo Gai
  43:Generated_Source\PSoC5/ErikaOS_ee_ulockres.c ****  * CVS: $Id: ee_ulockres.c,v 1.3 2006/12/03 22:07:50 pj Exp $
  44:Generated_Source\PSoC5/ErikaOS_ee_ulockres.c ****  */
  45:Generated_Source\PSoC5/ErikaOS_ee_ulockres.c **** 
  46:Generated_Source\PSoC5/ErikaOS_ee_ulockres.c **** /*
  47:Generated_Source\PSoC5/ErikaOS_ee_ulockres.c ****  * PSoC Port and API Generation
  48:Generated_Source\PSoC5/ErikaOS_ee_ulockres.c ****  * Carlos Fernando Meier Martinez
  49:Generated_Source\PSoC5/ErikaOS_ee_ulockres.c ****  * Hochschule Darmstadt, Germany. 2017.
  50:Generated_Source\PSoC5/ErikaOS_ee_ulockres.c ****  */
  51:Generated_Source\PSoC5/ErikaOS_ee_ulockres.c **** #include "ErikaOS_ee_tracing.h"
  52:Generated_Source\PSoC5/ErikaOS_ee_ulockres.c **** 
  53:Generated_Source\PSoC5/ErikaOS_ee_ulockres.c **** #if (__OO_configUSE_TRACE_FACILITY == 1)
  54:Generated_Source\PSoC5/ErikaOS_ee_ulockres.c **** #include "trcKernelPort.h"
  55:Generated_Source\PSoC5/ErikaOS_ee_ulockres.c **** #endif
  56:Generated_Source\PSoC5/ErikaOS_ee_ulockres.c **** 
  57:Generated_Source\PSoC5/ErikaOS_ee_ulockres.c **** #include "ErikaOS_ee_internal.inc"
  58:Generated_Source\PSoC5/ErikaOS_ee_ulockres.c **** #if (defined(__OO_BCC1__) || defined(__OO_BCC2__) || defined(__OO_ECC1__) || defined(__OO_ECC2__)) 
  59:Generated_Source\PSoC5/ErikaOS_ee_ulockres.c **** 
  60:Generated_Source\PSoC5/ErikaOS_ee_ulockres.c **** /* ReleaseResource:
  61:Generated_Source\PSoC5/ErikaOS_ee_ulockres.c ****    - release a resource
  62:Generated_Source\PSoC5/ErikaOS_ee_ulockres.c ****    - lock/unlock on the same function level
  63:Generated_Source\PSoC5/ErikaOS_ee_ulockres.c ****    - no point of rescheduling inside critical sections!!!
  64:Generated_Source\PSoC5/ErikaOS_ee_ulockres.c ****    - returns (only extended state)
  65:Generated_Source\PSoC5/ErikaOS_ee_ulockres.c ****        E_OS_ID     if resource number is invalid
  66:Generated_Source\PSoC5/ErikaOS_ee_ulockres.c ****        E_OS_ACCESS if resource already locked or interrupt routine 
  67:Generated_Source\PSoC5/ErikaOS_ee_ulockres.c ****                    greater than the ceiling priority
  68:Generated_Source\PSoC5/ErikaOS_ee_ulockres.c **** 
  69:Generated_Source\PSoC5/ErikaOS_ee_ulockres.c ****    Extended Status: Count for locked resources!!!!
  70:Generated_Source\PSoC5/ErikaOS_ee_ulockres.c **** */
  71:Generated_Source\PSoC5/ErikaOS_ee_ulockres.c **** 
  72:Generated_Source\PSoC5/ErikaOS_ee_ulockres.c **** #ifndef __PRIVATE_RELEASERESOURCE__
  73:Generated_Source\PSoC5/ErikaOS_ee_ulockres.c **** 
  74:Generated_Source\PSoC5/ErikaOS_ee_ulockres.c **** StatusType EE_oo_ReleaseResource(ResourceType ResID)
  75:Generated_Source\PSoC5/ErikaOS_ee_ulockres.c **** {
  28              		.loc 1 75 0
  29              		.cfi_startproc
  30              		@ args = 0, pretend = 0, frame = 0
  31              		@ frame_needed = 0, uses_anonymous_args = 0
  32              	.LVL0:
  33 0000 70B5     		push	{r4, r5, r6, lr}
  34              		.cfi_def_cfa_offset 16
  35              		.cfi_offset 4, -16
  36              		.cfi_offset 5, -12
  37              		.cfi_offset 6, -8
  38              		.cfi_offset 14, -4
  39              	.LBB91:
ARM GAS  C:\Users\agila\AppData\Local\Temp\cck4bOkV.s 			page 3


  40              	.LBB92:
  41              		.file 2 "Generated_Source\\PSoC5\\ErikaOS_ee_oo_internal.inc"
   1:Generated_Source\PSoC5/ErikaOS_ee_oo_internal.inc **** /* ###*B*###
   2:Generated_Source\PSoC5/ErikaOS_ee_oo_internal.inc ****  * ERIKA Enterprise - a tiny RTOS for small microcontrollers
   3:Generated_Source\PSoC5/ErikaOS_ee_oo_internal.inc ****  *
   4:Generated_Source\PSoC5/ErikaOS_ee_oo_internal.inc ****  * Copyright (C) 2002-2008  Evidence Srl
   5:Generated_Source\PSoC5/ErikaOS_ee_oo_internal.inc ****  *
   6:Generated_Source\PSoC5/ErikaOS_ee_oo_internal.inc ****  * This file is part of ERIKA Enterprise.
   7:Generated_Source\PSoC5/ErikaOS_ee_oo_internal.inc ****  *
   8:Generated_Source\PSoC5/ErikaOS_ee_oo_internal.inc ****  * ERIKA Enterprise is free software; you can redistribute it
   9:Generated_Source\PSoC5/ErikaOS_ee_oo_internal.inc ****  * and/or modify it under the terms of the GNU General Public License
  10:Generated_Source\PSoC5/ErikaOS_ee_oo_internal.inc ****  * version 2 as published by the Free Software Foundation, 
  11:Generated_Source\PSoC5/ErikaOS_ee_oo_internal.inc ****  * (with a special exception described below).
  12:Generated_Source\PSoC5/ErikaOS_ee_oo_internal.inc ****  *
  13:Generated_Source\PSoC5/ErikaOS_ee_oo_internal.inc ****  * Linking this code statically or dynamically with other modules is
  14:Generated_Source\PSoC5/ErikaOS_ee_oo_internal.inc ****  * making a combined work based on this code.  Thus, the terms and
  15:Generated_Source\PSoC5/ErikaOS_ee_oo_internal.inc ****  * conditions of the GNU General Public License cover the whole
  16:Generated_Source\PSoC5/ErikaOS_ee_oo_internal.inc ****  * combination.
  17:Generated_Source\PSoC5/ErikaOS_ee_oo_internal.inc ****  *
  18:Generated_Source\PSoC5/ErikaOS_ee_oo_internal.inc ****  * As a special exception, the copyright holders of this library give you
  19:Generated_Source\PSoC5/ErikaOS_ee_oo_internal.inc ****  * permission to link this code with independent modules to produce an
  20:Generated_Source\PSoC5/ErikaOS_ee_oo_internal.inc ****  * executable, regardless of the license terms of these independent
  21:Generated_Source\PSoC5/ErikaOS_ee_oo_internal.inc ****  * modules, and to copy and distribute the resulting executable under
  22:Generated_Source\PSoC5/ErikaOS_ee_oo_internal.inc ****  * terms of your choice, provided that you also meet, for each linked
  23:Generated_Source\PSoC5/ErikaOS_ee_oo_internal.inc ****  * independent module, the terms and conditions of the license of that
  24:Generated_Source\PSoC5/ErikaOS_ee_oo_internal.inc ****  * module.  An independent module is a module which is not derived from
  25:Generated_Source\PSoC5/ErikaOS_ee_oo_internal.inc ****  * or based on this library.  If you modify this code, you may extend
  26:Generated_Source\PSoC5/ErikaOS_ee_oo_internal.inc ****  * this exception to your version of the code, but you are not
  27:Generated_Source\PSoC5/ErikaOS_ee_oo_internal.inc ****  * obligated to do so.  If you do not wish to do so, delete this
  28:Generated_Source\PSoC5/ErikaOS_ee_oo_internal.inc ****  * exception statement from your version.
  29:Generated_Source\PSoC5/ErikaOS_ee_oo_internal.inc ****  *
  30:Generated_Source\PSoC5/ErikaOS_ee_oo_internal.inc ****  * ERIKA Enterprise is distributed in the hope that it will be
  31:Generated_Source\PSoC5/ErikaOS_ee_oo_internal.inc ****  * useful, but WITHOUT ANY WARRANTY; without even the implied warranty
  32:Generated_Source\PSoC5/ErikaOS_ee_oo_internal.inc ****  * of MERCHANTABILITY or FITNESS FOR A PARTICULAR PURPOSE.  See the
  33:Generated_Source\PSoC5/ErikaOS_ee_oo_internal.inc ****  * GNU General Public License version 2 for more details.
  34:Generated_Source\PSoC5/ErikaOS_ee_oo_internal.inc ****  *
  35:Generated_Source\PSoC5/ErikaOS_ee_oo_internal.inc ****  * You should have received a copy of the GNU General Public License
  36:Generated_Source\PSoC5/ErikaOS_ee_oo_internal.inc ****  * version 2 along with ERIKA Enterprise; if not, write to the
  37:Generated_Source\PSoC5/ErikaOS_ee_oo_internal.inc ****  * Free Software Foundation, Inc., 51 Franklin Street, Fifth Floor,
  38:Generated_Source\PSoC5/ErikaOS_ee_oo_internal.inc ****  * Boston, MA 02110-1301 USA.
  39:Generated_Source\PSoC5/ErikaOS_ee_oo_internal.inc ****  * ###*E*### */
  40:Generated_Source\PSoC5/ErikaOS_ee_oo_internal.inc **** 
  41:Generated_Source\PSoC5/ErikaOS_ee_oo_internal.inc **** /*
  42:Generated_Source\PSoC5/ErikaOS_ee_oo_internal.inc ****  * Author: 2002 Paolo Gai
  43:Generated_Source\PSoC5/ErikaOS_ee_oo_internal.inc ****  * CVS: $Id: ee_internal.h,v 1.6 2006/12/03 22:07:50 pj Exp $
  44:Generated_Source\PSoC5/ErikaOS_ee_oo_internal.inc ****  */
  45:Generated_Source\PSoC5/ErikaOS_ee_oo_internal.inc **** 
  46:Generated_Source\PSoC5/ErikaOS_ee_oo_internal.inc **** /*
  47:Generated_Source\PSoC5/ErikaOS_ee_oo_internal.inc ****  * PSoC Port and API Generation
  48:Generated_Source\PSoC5/ErikaOS_ee_oo_internal.inc ****  * Carlos Fernando Meier Martinez
  49:Generated_Source\PSoC5/ErikaOS_ee_oo_internal.inc ****  * Hochschule Darmstadt, Germany. 2017.
  50:Generated_Source\PSoC5/ErikaOS_ee_oo_internal.inc ****  */
  51:Generated_Source\PSoC5/ErikaOS_ee_oo_internal.inc **** 
  52:Generated_Source\PSoC5/ErikaOS_ee_oo_internal.inc **** #ifndef PKG_KERNEL_OO_INC_EE_OO_INTERNAL_H
  53:Generated_Source\PSoC5/ErikaOS_ee_oo_internal.inc **** #define PKG_KERNEL_OO_INC_EE_OO_INTERNAL_H
  54:Generated_Source\PSoC5/ErikaOS_ee_oo_internal.inc **** 
  55:Generated_Source\PSoC5/ErikaOS_ee_oo_internal.inc **** #include "ErikaOS_ee_oo_common.inc"
ARM GAS  C:\Users\agila\AppData\Local\Temp\cck4bOkV.s 			page 4


  56:Generated_Source\PSoC5/ErikaOS_ee_oo_internal.inc **** #include "ErikaOS_ee_oo_intfunc.inc"
  57:Generated_Source\PSoC5/ErikaOS_ee_oo_internal.inc **** #include "ErikaOS_ee_oo_irq.inc"
  58:Generated_Source\PSoC5/ErikaOS_ee_oo_internal.inc **** #if (__OO_configUSE_TRACE_FACILITY == 1)
  59:Generated_Source\PSoC5/ErikaOS_ee_oo_internal.inc **** #include "trcKernelPort.h" 
  60:Generated_Source\PSoC5/ErikaOS_ee_oo_internal.inc **** #endif
  61:Generated_Source\PSoC5/ErikaOS_ee_oo_internal.inc **** /*******************************************************************************
  62:Generated_Source\PSoC5/ErikaOS_ee_oo_internal.inc ****  *                    New Error Handling Internal Utilities
  63:Generated_Source\PSoC5/ErikaOS_ee_oo_internal.inc ****  ******************************************************************************/
  64:Generated_Source\PSoC5/ErikaOS_ee_oo_internal.inc **** 
  65:Generated_Source\PSoC5/ErikaOS_ee_oo_internal.inc **** /* Error Parameters Utilities Macros */
  66:Generated_Source\PSoC5/ErikaOS_ee_oo_internal.inc **** #define EE_OS_PARAM(param_name)   EE_os_param param_name
  67:Generated_Source\PSoC5/ErikaOS_ee_oo_internal.inc **** #define EE_OS_PARAM_VALUE(param_name, param_value)  \
  68:Generated_Source\PSoC5/ErikaOS_ee_oo_internal.inc ****   ((param_name).value_param = (param_value))
  69:Generated_Source\PSoC5/ErikaOS_ee_oo_internal.inc **** 
  70:Generated_Source\PSoC5/ErikaOS_ee_oo_internal.inc **** #define EE_OS_PARAM_REF(param_name, param_field, param_ref) \
  71:Generated_Source\PSoC5/ErikaOS_ee_oo_internal.inc ****   ((param_name).param_field = (param_ref))
  72:Generated_Source\PSoC5/ErikaOS_ee_oo_internal.inc **** 
  73:Generated_Source\PSoC5/ErikaOS_ee_oo_internal.inc **** #ifdef __OO_HAS_ERRORHOOK__
  74:Generated_Source\PSoC5/ErikaOS_ee_oo_internal.inc **** /* Error Parameters Data Structure Utilities Macros from user space */
  75:Generated_Source\PSoC5/ErikaOS_ee_oo_internal.inc **** #define EE_OS_ERROR_PARAMETERS()  EE_oo_ErrorHook_parameters error_parameters
  76:Generated_Source\PSoC5/ErikaOS_ee_oo_internal.inc **** 
  77:Generated_Source\PSoC5/ErikaOS_ee_oo_internal.inc **** #define EE_OS_ERROR_PARAMETERS_INIT(param1_in,param2_in,param3_in)  \
  78:Generated_Source\PSoC5/ErikaOS_ee_oo_internal.inc ****   EE_oo_ErrorHook_parameters error_parameters = { param1_in, param2_in, \
  79:Generated_Source\PSoC5/ErikaOS_ee_oo_internal.inc ****     param3_in }
  80:Generated_Source\PSoC5/ErikaOS_ee_oo_internal.inc **** 
  81:Generated_Source\PSoC5/ErikaOS_ee_oo_internal.inc **** #define EE_OS_ERROR_PARAMETERS_PARAM1_VALUE(param1_value) \
  82:Generated_Source\PSoC5/ErikaOS_ee_oo_internal.inc ****   (error_parameters.param1.value_param = param1_value)
  83:Generated_Source\PSoC5/ErikaOS_ee_oo_internal.inc **** #define EE_OS_ERROR_PARAMETERS_PARAM2_VALUE(param2_value) \
  84:Generated_Source\PSoC5/ErikaOS_ee_oo_internal.inc ****   (error_parameters.param2.value_param = param2_value)
  85:Generated_Source\PSoC5/ErikaOS_ee_oo_internal.inc **** #define EE_OS_ERROR_PARAMETERS_PARAM3_VALUE(param3_value) \
  86:Generated_Source\PSoC5/ErikaOS_ee_oo_internal.inc ****   (error_parameters.param3.value_param = param3_value)
  87:Generated_Source\PSoC5/ErikaOS_ee_oo_internal.inc **** 
  88:Generated_Source\PSoC5/ErikaOS_ee_oo_internal.inc **** #define EE_OS_ERROR_PARAMETERS_PARAM1_REF(param_field,param_ref)  \
  89:Generated_Source\PSoC5/ErikaOS_ee_oo_internal.inc ****   (error_parameters.param1.param_field = (param_ref))
  90:Generated_Source\PSoC5/ErikaOS_ee_oo_internal.inc **** #define EE_OS_ERROR_PARAMETERS_PARAM2_REF(param_field,param_ref)  \
  91:Generated_Source\PSoC5/ErikaOS_ee_oo_internal.inc ****   (error_parameters.param2.param_field = (param_ref))
  92:Generated_Source\PSoC5/ErikaOS_ee_oo_internal.inc **** #define EE_OS_ERROR_PARAMETERS_PARAM3_REF(param_field,param_ref)  \
  93:Generated_Source\PSoC5/ErikaOS_ee_oo_internal.inc ****   (error_parameters.param3.param_field = (param_ref))
  94:Generated_Source\PSoC5/ErikaOS_ee_oo_internal.inc **** #else /* __OO_HAS_ERRORHOOK__ */
  95:Generated_Source\PSoC5/ErikaOS_ee_oo_internal.inc **** #define EE_OS_ERROR_PARAMETERS()                                    ((void)0)
  96:Generated_Source\PSoC5/ErikaOS_ee_oo_internal.inc **** 
  97:Generated_Source\PSoC5/ErikaOS_ee_oo_internal.inc **** #define EE_OS_ERROR_PARAMETERS_INIT(param1_in,param2_in,param3_in)  ((void)0)
  98:Generated_Source\PSoC5/ErikaOS_ee_oo_internal.inc **** 
  99:Generated_Source\PSoC5/ErikaOS_ee_oo_internal.inc **** #define EE_OS_ERROR_PARAMETERS_PARAM1_VALUE(param1_value)           ((void)0)
 100:Generated_Source\PSoC5/ErikaOS_ee_oo_internal.inc **** #define EE_OS_ERROR_PARAMETERS_PARAM2_VALUE(param2_value)           ((void)0)
 101:Generated_Source\PSoC5/ErikaOS_ee_oo_internal.inc **** #define EE_OS_ERROR_PARAMETERS_PARAM3_VALUE(param3_value)           ((void)0)
 102:Generated_Source\PSoC5/ErikaOS_ee_oo_internal.inc **** 
 103:Generated_Source\PSoC5/ErikaOS_ee_oo_internal.inc **** #define EE_OS_ERROR_PARAMETERS_PARAM1_REF(param_field,param_ref)    ((void)0)
 104:Generated_Source\PSoC5/ErikaOS_ee_oo_internal.inc **** #define EE_OS_ERROR_PARAMETERS_PARAM2_REF(param_field,param_ref)    ((void)0)
 105:Generated_Source\PSoC5/ErikaOS_ee_oo_internal.inc **** #define EE_OS_ERROR_PARAMETERS_PARAM3_REF(param_field,param_ref)    ((void)0)
 106:Generated_Source\PSoC5/ErikaOS_ee_oo_internal.inc **** #endif /* __OO_HAS_ERRORHOOK__ */
 107:Generated_Source\PSoC5/ErikaOS_ee_oo_internal.inc **** 
 108:Generated_Source\PSoC5/ErikaOS_ee_oo_internal.inc **** /* Error Handling */
 109:Generated_Source\PSoC5/ErikaOS_ee_oo_internal.inc **** #ifdef __OO_HAS_ERRORHOOK__
 110:Generated_Source\PSoC5/ErikaOS_ee_oo_internal.inc **** #ifndef  __OO_ERRORHOOK_NOMACROS__
 111:Generated_Source\PSoC5/ErikaOS_ee_oo_internal.inc **** 
 112:Generated_Source\PSoC5/ErikaOS_ee_oo_internal.inc **** __INLINE__ void  EE_os_fill_error_data( OSServiceIdType
ARM GAS  C:\Users\agila\AppData\Local\Temp\cck4bOkV.s 			page 5


 113:Generated_Source\PSoC5/ErikaOS_ee_oo_internal.inc ****   ServiceID, EE_os_param param1, EE_os_param param2, EE_os_param param3 )
 114:Generated_Source\PSoC5/ErikaOS_ee_oo_internal.inc **** {
 115:Generated_Source\PSoC5/ErikaOS_ee_oo_internal.inc ****   register EE_oo_ErrorHook_parameters * const
 116:Generated_Source\PSoC5/ErikaOS_ee_oo_internal.inc ****     p_errorhook_parameter = EE_oo_get_errorhook_data();
 117:Generated_Source\PSoC5/ErikaOS_ee_oo_internal.inc ****   (*EE_oo_get_errorhook_service_id()) = ServiceID;
 118:Generated_Source\PSoC5/ErikaOS_ee_oo_internal.inc ****   p_errorhook_parameter->param1 = param1;
 119:Generated_Source\PSoC5/ErikaOS_ee_oo_internal.inc ****   p_errorhook_parameter->param2 = param2;
 120:Generated_Source\PSoC5/ErikaOS_ee_oo_internal.inc ****   p_errorhook_parameter->param3 = param3;
 121:Generated_Source\PSoC5/ErikaOS_ee_oo_internal.inc **** }
 122:Generated_Source\PSoC5/ErikaOS_ee_oo_internal.inc **** #else /* !__OO_ERRORHOOK_NOMACROS__ */
 123:Generated_Source\PSoC5/ErikaOS_ee_oo_internal.inc **** 
 124:Generated_Source\PSoC5/ErikaOS_ee_oo_internal.inc **** #define EE_os_fill_error_data(ServiceID,param1,param2,param3) ((void)0)
 125:Generated_Source\PSoC5/ErikaOS_ee_oo_internal.inc **** #endif /* !__OO_ERRORHOOK_NOMACROS__ */
 126:Generated_Source\PSoC5/ErikaOS_ee_oo_internal.inc **** 
 127:Generated_Source\PSoC5/ErikaOS_ee_oo_internal.inc **** __INLINE__ void  EE_os_notify_error( OSServiceIdType ServiceID,
 128:Generated_Source\PSoC5/ErikaOS_ee_oo_internal.inc ****   EE_os_param param1, EE_os_param param2, EE_os_param param3,
 129:Generated_Source\PSoC5/ErikaOS_ee_oo_internal.inc ****   StatusType Error )
 130:Generated_Source\PSoC5/ErikaOS_ee_oo_internal.inc **** {
 131:Generated_Source\PSoC5/ErikaOS_ee_oo_internal.inc ****   EE_ORTI_set_lasterror(Error);
 132:Generated_Source\PSoC5/ErikaOS_ee_oo_internal.inc ****   if ( EE_ErrorHook_nested_flag == 0U )
 133:Generated_Source\PSoC5/ErikaOS_ee_oo_internal.inc ****   {
 134:Generated_Source\PSoC5/ErikaOS_ee_oo_internal.inc ****     EE_os_fill_error_data(ServiceID, param1, param2, param3);
 135:Generated_Source\PSoC5/ErikaOS_ee_oo_internal.inc ****     EE_ErrorHook_nested_flag = 1U;
 136:Generated_Source\PSoC5/ErikaOS_ee_oo_internal.inc ****     EE_oo_call_ErrorHook(Error);
 137:Generated_Source\PSoC5/ErikaOS_ee_oo_internal.inc ****     EE_ErrorHook_nested_flag = 0U;
 138:Generated_Source\PSoC5/ErikaOS_ee_oo_internal.inc ****   }
 139:Generated_Source\PSoC5/ErikaOS_ee_oo_internal.inc **** }
 140:Generated_Source\PSoC5/ErikaOS_ee_oo_internal.inc **** 
 141:Generated_Source\PSoC5/ErikaOS_ee_oo_internal.inc **** #ifndef __EE_MEMORY_PROTECTION__
 142:Generated_Source\PSoC5/ErikaOS_ee_oo_internal.inc **** __INLINE__ void  EE_os_notify_error_from_us(
 143:Generated_Source\PSoC5/ErikaOS_ee_oo_internal.inc ****   OSServiceIdType ServiceID, const EE_oo_ErrorHook_parameters * const
 144:Generated_Source\PSoC5/ErikaOS_ee_oo_internal.inc ****     error_parameters_ref, StatusType Error )
 145:Generated_Source\PSoC5/ErikaOS_ee_oo_internal.inc **** {
 146:Generated_Source\PSoC5/ErikaOS_ee_oo_internal.inc ****   if ( error_parameters_ref != NULL ) {
 147:Generated_Source\PSoC5/ErikaOS_ee_oo_internal.inc ****     register EE_FREG const flag = EE_hal_begin_nested_primitive();
 148:Generated_Source\PSoC5/ErikaOS_ee_oo_internal.inc ****     EE_os_notify_error(ServiceID, error_parameters_ref->param1,
 149:Generated_Source\PSoC5/ErikaOS_ee_oo_internal.inc ****       error_parameters_ref->param2, error_parameters_ref->param3, Error);
 150:Generated_Source\PSoC5/ErikaOS_ee_oo_internal.inc ****     EE_hal_end_nested_primitive(flag);
 151:Generated_Source\PSoC5/ErikaOS_ee_oo_internal.inc ****   }
 152:Generated_Source\PSoC5/ErikaOS_ee_oo_internal.inc **** }
 153:Generated_Source\PSoC5/ErikaOS_ee_oo_internal.inc **** #else /* !__EE_MEMORY_PROTECTION__ */
 154:Generated_Source\PSoC5/ErikaOS_ee_oo_internal.inc **** /* If MemMap.h support is enabled (i.e. because memory protection): use it */
 155:Generated_Source\PSoC5/ErikaOS_ee_oo_internal.inc **** #ifdef EE_SUPPORT_MEMMAP_H
 156:Generated_Source\PSoC5/ErikaOS_ee_oo_internal.inc **** /* The following code belong to ERIKA API section ee_api_text */
 157:Generated_Source\PSoC5/ErikaOS_ee_oo_internal.inc **** #define API_START_SEC_CODE
 158:Generated_Source\PSoC5/ErikaOS_ee_oo_internal.inc **** #include "MemMap.inc"
 159:Generated_Source\PSoC5/ErikaOS_ee_oo_internal.inc **** #endif /* EE_SUPPORT_MEMMAP_H */
 160:Generated_Source\PSoC5/ErikaOS_ee_oo_internal.inc **** 
 161:Generated_Source\PSoC5/ErikaOS_ee_oo_internal.inc **** void EE_os_notify_error_from_us( OSServiceIdType ServiceID,
 162:Generated_Source\PSoC5/ErikaOS_ee_oo_internal.inc ****   const EE_oo_ErrorHook_parameters * const error_parameters_ref,
 163:Generated_Source\PSoC5/ErikaOS_ee_oo_internal.inc ****   StatusType Error );
 164:Generated_Source\PSoC5/ErikaOS_ee_oo_internal.inc **** 
 165:Generated_Source\PSoC5/ErikaOS_ee_oo_internal.inc **** #ifdef EE_SUPPORT_MEMMAP_H
 166:Generated_Source\PSoC5/ErikaOS_ee_oo_internal.inc **** #define API_STOP_SEC_CODE
 167:Generated_Source\PSoC5/ErikaOS_ee_oo_internal.inc **** #include "MemMap.inc"
 168:Generated_Source\PSoC5/ErikaOS_ee_oo_internal.inc **** #endif /* EE_SUPPORT_MEMMAP_H */
 169:Generated_Source\PSoC5/ErikaOS_ee_oo_internal.inc **** #endif /* !__EE_MEMORY_PROTECTION__ */
ARM GAS  C:\Users\agila\AppData\Local\Temp\cck4bOkV.s 			page 6


 170:Generated_Source\PSoC5/ErikaOS_ee_oo_internal.inc **** #else /* __OO_HAS_ERRORHOOK__ */
 171:Generated_Source\PSoC5/ErikaOS_ee_oo_internal.inc **** 
 172:Generated_Source\PSoC5/ErikaOS_ee_oo_internal.inc **** /* Macro used for remapping to prevent compiler warnings on unused parameters */
 173:Generated_Source\PSoC5/ErikaOS_ee_oo_internal.inc **** #define EE_os_notify_error(k,j,x,y,z) EE_os_notify_error_impl(z)
 174:Generated_Source\PSoC5/ErikaOS_ee_oo_internal.inc **** 
 175:Generated_Source\PSoC5/ErikaOS_ee_oo_internal.inc **** __INLINE__ void  EE_os_notify_error_impl(StatusType Error)
 176:Generated_Source\PSoC5/ErikaOS_ee_oo_internal.inc **** {
 177:Generated_Source\PSoC5/ErikaOS_ee_oo_internal.inc ****   EE_ORTI_set_lasterror(Error);
 178:Generated_Source\PSoC5/ErikaOS_ee_oo_internal.inc **** }
 179:Generated_Source\PSoC5/ErikaOS_ee_oo_internal.inc **** 
 180:Generated_Source\PSoC5/ErikaOS_ee_oo_internal.inc **** /* Macro used for remapping to prevent compiler warnings on unused parameters */
 181:Generated_Source\PSoC5/ErikaOS_ee_oo_internal.inc **** #define EE_os_notify_error_from_us(x,y,z) EE_os_notify_error_from_us_impl(z)
 182:Generated_Source\PSoC5/ErikaOS_ee_oo_internal.inc **** 
 183:Generated_Source\PSoC5/ErikaOS_ee_oo_internal.inc **** __INLINE__ void  EE_os_notify_error_from_us_impl(
 184:Generated_Source\PSoC5/ErikaOS_ee_oo_internal.inc ****   StatusType Error )
 185:Generated_Source\PSoC5/ErikaOS_ee_oo_internal.inc **** {
 186:Generated_Source\PSoC5/ErikaOS_ee_oo_internal.inc ****   EE_ORTI_set_lasterror(Error);
 187:Generated_Source\PSoC5/ErikaOS_ee_oo_internal.inc **** }
 188:Generated_Source\PSoC5/ErikaOS_ee_oo_internal.inc **** #endif /* __OO_HAS_ERRORHOOK__ */
 189:Generated_Source\PSoC5/ErikaOS_ee_oo_internal.inc **** 
 190:Generated_Source\PSoC5/ErikaOS_ee_oo_internal.inc **** /*******************************************************************************
 191:Generated_Source\PSoC5/ErikaOS_ee_oo_internal.inc ****  *                  Kernel Critical Section Utility Macros
 192:Generated_Source\PSoC5/ErikaOS_ee_oo_internal.inc ****  ******************************************************************************/
 193:Generated_Source\PSoC5/ErikaOS_ee_oo_internal.inc **** #ifndef __EE_MEMORY_PROTECTION__
 194:Generated_Source\PSoC5/ErikaOS_ee_oo_internal.inc **** 
 195:Generated_Source\PSoC5/ErikaOS_ee_oo_internal.inc **** #define EE_OS_DECLARE_CRITICAL_SECTION()  register EE_FREG flag
 196:Generated_Source\PSoC5/ErikaOS_ee_oo_internal.inc **** 
 197:Generated_Source\PSoC5/ErikaOS_ee_oo_internal.inc **** #define EE_OS_ENTER_CRITICAL_SECTION()          \
 198:Generated_Source\PSoC5/ErikaOS_ee_oo_internal.inc ****   do {                                          \
 199:Generated_Source\PSoC5/ErikaOS_ee_oo_internal.inc ****     flag = EE_hal_begin_nested_primitive();     \
 200:Generated_Source\PSoC5/ErikaOS_ee_oo_internal.inc ****     EE_as_tp_active_pause_and_update_budgets(); \
 201:Generated_Source\PSoC5/ErikaOS_ee_oo_internal.inc ****   } while ( 0 )
 202:Generated_Source\PSoC5/ErikaOS_ee_oo_internal.inc **** 
 203:Generated_Source\PSoC5/ErikaOS_ee_oo_internal.inc **** #define EE_OS_DECLARE_AND_ENTER_CRITICAL_SECTION()  \
 204:Generated_Source\PSoC5/ErikaOS_ee_oo_internal.inc ****   EE_OS_DECLARE_CRITICAL_SECTION();                 \
 205:Generated_Source\PSoC5/ErikaOS_ee_oo_internal.inc ****   EE_OS_ENTER_CRITICAL_SECTION()
 206:Generated_Source\PSoC5/ErikaOS_ee_oo_internal.inc **** 
 207:Generated_Source\PSoC5/ErikaOS_ee_oo_internal.inc **** #define EE_OS_EXIT_CRITICAL_SECTION()             \
 208:Generated_Source\PSoC5/ErikaOS_ee_oo_internal.inc ****   do {                                            \
 209:Generated_Source\PSoC5/ErikaOS_ee_oo_internal.inc ****     EE_as_tp_active_update_budgets_and_restart(); \
 210:Generated_Source\PSoC5/ErikaOS_ee_oo_internal.inc ****     EE_hal_end_nested_primitive(flag);            \
 211:Generated_Source\PSoC5/ErikaOS_ee_oo_internal.inc ****   } while ( 0 )
 212:Generated_Source\PSoC5/ErikaOS_ee_oo_internal.inc **** 
 213:Generated_Source\PSoC5/ErikaOS_ee_oo_internal.inc **** #define EE_OS_FOREVER_CRITICAL_SECTION()          \
 214:Generated_Source\PSoC5/ErikaOS_ee_oo_internal.inc ****   do {                                            \
 215:Generated_Source\PSoC5/ErikaOS_ee_oo_internal.inc ****     EE_hal_disableIRQ();                          \
 216:Generated_Source\PSoC5/ErikaOS_ee_oo_internal.inc ****     EE_as_tp_active_pause_and_update_budgets();   \
 217:Generated_Source\PSoC5/ErikaOS_ee_oo_internal.inc ****   } while ( 0 )
 218:Generated_Source\PSoC5/ErikaOS_ee_oo_internal.inc **** 
 219:Generated_Source\PSoC5/ErikaOS_ee_oo_internal.inc **** #else /* !__EE_MEMORY_PROTECTION__ */
 220:Generated_Source\PSoC5/ErikaOS_ee_oo_internal.inc **** /* TP in any case have to be handled in Service Implementation. Syscall
 221:Generated_Source\PSoC5/ErikaOS_ee_oo_internal.inc ****    mechanism can be implement in C language and, in that case, a function call
 222:Generated_Source\PSoC5/ErikaOS_ee_oo_internal.inc ****    cannot be done in syscall handler. */
 223:Generated_Source\PSoC5/ErikaOS_ee_oo_internal.inc **** #define EE_OS_DECLARE_CRITICAL_SECTION()            ((void)0)
 224:Generated_Source\PSoC5/ErikaOS_ee_oo_internal.inc **** #define EE_OS_ENTER_CRITICAL_SECTION()              \
 225:Generated_Source\PSoC5/ErikaOS_ee_oo_internal.inc ****   EE_as_tp_active_pause_and_update_budgets()
 226:Generated_Source\PSoC5/ErikaOS_ee_oo_internal.inc **** #define EE_OS_DECLARE_AND_ENTER_CRITICAL_SECTION()  \
ARM GAS  C:\Users\agila\AppData\Local\Temp\cck4bOkV.s 			page 7


 227:Generated_Source\PSoC5/ErikaOS_ee_oo_internal.inc ****   EE_as_tp_active_pause_and_update_budgets()
 228:Generated_Source\PSoC5/ErikaOS_ee_oo_internal.inc **** #define EE_OS_EXIT_CRITICAL_SECTION()               \
 229:Generated_Source\PSoC5/ErikaOS_ee_oo_internal.inc ****   EE_as_tp_active_update_budgets_and_restart()
 230:Generated_Source\PSoC5/ErikaOS_ee_oo_internal.inc **** #define EE_OS_FOREVER_CRITICAL_SECTION()			\
 231:Generated_Source\PSoC5/ErikaOS_ee_oo_internal.inc ****   EE_as_tp_active_pause_and_update_budgets()
 232:Generated_Source\PSoC5/ErikaOS_ee_oo_internal.inc **** #endif /* !__EE_MEMORY_PROTECTION__ */
 233:Generated_Source\PSoC5/ErikaOS_ee_oo_internal.inc **** 
 234:Generated_Source\PSoC5/ErikaOS_ee_oo_internal.inc **** /* return the first stacked task (the running task) without extracting it 
 235:Generated_Source\PSoC5/ErikaOS_ee_oo_internal.inc ****    we suppose that this function can be called ALSO at interrupt ENABLED!!!
 236:Generated_Source\PSoC5/ErikaOS_ee_oo_internal.inc ****    (see WaitEvent.c) */
 237:Generated_Source\PSoC5/ErikaOS_ee_oo_internal.inc **** #ifndef __PRIVATE_STK_QUERYFIRST__
 238:Generated_Source\PSoC5/ErikaOS_ee_oo_internal.inc **** __INLINE__ EE_TID  EE_stk_queryfirst(void)
 239:Generated_Source\PSoC5/ErikaOS_ee_oo_internal.inc **** {
 240:Generated_Source\PSoC5/ErikaOS_ee_oo_internal.inc ****     return EE_stkfirst;  
  42              		.loc 2 240 0
  43 0002 4D4B     		ldr	r3, .L24
  44 0004 1B68     		ldr	r3, [r3]
  45              	.LBE92:
  46              	.LBE91:
  47              	.LBB93:
  48              	.LBB94:
  49              		.file 3 "Generated_Source\\PSoC5\\ErikaOS_common_ee_primitives.inc"
   1:Generated_Source\PSoC5/ErikaOS_common_ee_primitives.inc **** /* ###*B*###
   2:Generated_Source\PSoC5/ErikaOS_common_ee_primitives.inc ****  * ERIKA Enterprise - a tiny RTOS for small microcontrollers
   3:Generated_Source\PSoC5/ErikaOS_common_ee_primitives.inc ****  *
   4:Generated_Source\PSoC5/ErikaOS_common_ee_primitives.inc ****  * Copyright (C) 2002-2009  Evidence Srl
   5:Generated_Source\PSoC5/ErikaOS_common_ee_primitives.inc ****  *
   6:Generated_Source\PSoC5/ErikaOS_common_ee_primitives.inc ****  * This file is part of ERIKA Enterprise.
   7:Generated_Source\PSoC5/ErikaOS_common_ee_primitives.inc ****  *
   8:Generated_Source\PSoC5/ErikaOS_common_ee_primitives.inc ****  * ERIKA Enterprise is free software; you can redistribute it
   9:Generated_Source\PSoC5/ErikaOS_common_ee_primitives.inc ****  * and/or modify it under the terms of the GNU General Public License
  10:Generated_Source\PSoC5/ErikaOS_common_ee_primitives.inc ****  * version 2 as published by the Free Software Foundation, 
  11:Generated_Source\PSoC5/ErikaOS_common_ee_primitives.inc ****  * (with a special exception described below).
  12:Generated_Source\PSoC5/ErikaOS_common_ee_primitives.inc ****  *
  13:Generated_Source\PSoC5/ErikaOS_common_ee_primitives.inc ****  * Linking this code statically or dynamically with other modules is
  14:Generated_Source\PSoC5/ErikaOS_common_ee_primitives.inc ****  * making a combined work based on this code.  Thus, the terms and
  15:Generated_Source\PSoC5/ErikaOS_common_ee_primitives.inc ****  * conditions of the GNU General Public License cover the whole
  16:Generated_Source\PSoC5/ErikaOS_common_ee_primitives.inc ****  * combination.
  17:Generated_Source\PSoC5/ErikaOS_common_ee_primitives.inc ****  *
  18:Generated_Source\PSoC5/ErikaOS_common_ee_primitives.inc ****  * As a special exception, the copyright holders of this library give you
  19:Generated_Source\PSoC5/ErikaOS_common_ee_primitives.inc ****  * permission to link this code with independent modules to produce an
  20:Generated_Source\PSoC5/ErikaOS_common_ee_primitives.inc ****  * executable, regardless of the license terms of these independent
  21:Generated_Source\PSoC5/ErikaOS_common_ee_primitives.inc ****  * modules, and to copy and distribute the resulting executable under
  22:Generated_Source\PSoC5/ErikaOS_common_ee_primitives.inc ****  * terms of your choice, provided that you also meet, for each linked
  23:Generated_Source\PSoC5/ErikaOS_common_ee_primitives.inc ****  * independent module, the terms and conditions of the license of that
  24:Generated_Source\PSoC5/ErikaOS_common_ee_primitives.inc ****  * module.  An independent module is a module which is not derived from
  25:Generated_Source\PSoC5/ErikaOS_common_ee_primitives.inc ****  * or based on this library.  If you modify this code, you may extend
  26:Generated_Source\PSoC5/ErikaOS_common_ee_primitives.inc ****  * this exception to your version of the code, but you are not
  27:Generated_Source\PSoC5/ErikaOS_common_ee_primitives.inc ****  * obligated to do so.  If you do not wish to do so, delete this
  28:Generated_Source\PSoC5/ErikaOS_common_ee_primitives.inc ****  * exception statement from your version.
  29:Generated_Source\PSoC5/ErikaOS_common_ee_primitives.inc ****  *
  30:Generated_Source\PSoC5/ErikaOS_common_ee_primitives.inc ****  * ERIKA Enterprise is distributed in the hope that it will be
  31:Generated_Source\PSoC5/ErikaOS_common_ee_primitives.inc ****  * useful, but WITHOUT ANY WARRANTY; without even the implied warranty
  32:Generated_Source\PSoC5/ErikaOS_common_ee_primitives.inc ****  * of MERCHANTABILITY or FITNESS FOR A PARTICULAR PURPOSE.  See the
  33:Generated_Source\PSoC5/ErikaOS_common_ee_primitives.inc ****  * GNU General Public License version 2 for more details.
  34:Generated_Source\PSoC5/ErikaOS_common_ee_primitives.inc ****  *
  35:Generated_Source\PSoC5/ErikaOS_common_ee_primitives.inc ****  * You should have received a copy of the GNU General Public License
ARM GAS  C:\Users\agila\AppData\Local\Temp\cck4bOkV.s 			page 8


  36:Generated_Source\PSoC5/ErikaOS_common_ee_primitives.inc ****  * version 2 along with ERIKA Enterprise; if not, write to the
  37:Generated_Source\PSoC5/ErikaOS_common_ee_primitives.inc ****  * Free Software Foundation, Inc., 51 Franklin Street, Fifth Floor,
  38:Generated_Source\PSoC5/ErikaOS_common_ee_primitives.inc ****  * Boston, MA 02110-1301 USA.
  39:Generated_Source\PSoC5/ErikaOS_common_ee_primitives.inc ****  * ###*E*### */
  40:Generated_Source\PSoC5/ErikaOS_common_ee_primitives.inc **** 
  41:Generated_Source\PSoC5/ErikaOS_common_ee_primitives.inc **** /*
  42:Generated_Source\PSoC5/ErikaOS_common_ee_primitives.inc ****  * Functions used in HAL implementations, to be included by a specific
  43:Generated_Source\PSoC5/ErikaOS_common_ee_primitives.inc ****  * ee_internal.h header.
  44:Generated_Source\PSoC5/ErikaOS_common_ee_primitives.inc ****  * Derived from pkg/cpu/pic30/inc/ee_internal.h
  45:Generated_Source\PSoC5/ErikaOS_common_ee_primitives.inc ****  * Author: 2009 Bernardo Dal Seno
  46:Generated_Source\PSoC5/ErikaOS_common_ee_primitives.inc ****  */
  47:Generated_Source\PSoC5/ErikaOS_common_ee_primitives.inc **** 
  48:Generated_Source\PSoC5/ErikaOS_common_ee_primitives.inc **** /*
  49:Generated_Source\PSoC5/ErikaOS_common_ee_primitives.inc ****  * PSoC Port and API Generation
  50:Generated_Source\PSoC5/ErikaOS_common_ee_primitives.inc ****  * Carlos Fernando Meier Martinez
  51:Generated_Source\PSoC5/ErikaOS_common_ee_primitives.inc ****  * Hochschule Darmstadt, Germany. 2017.
  52:Generated_Source\PSoC5/ErikaOS_common_ee_primitives.inc ****  */
  53:Generated_Source\PSoC5/ErikaOS_common_ee_primitives.inc **** 
  54:Generated_Source\PSoC5/ErikaOS_common_ee_primitives.inc **** #ifndef PKG_CPU_COMMON_INC_EE_PRIMITIVES_H
  55:Generated_Source\PSoC5/ErikaOS_common_ee_primitives.inc **** #define PKG_CPU_COMMON_INC_EE_PRIMITIVES_H
  56:Generated_Source\PSoC5/ErikaOS_common_ee_primitives.inc **** 
  57:Generated_Source\PSoC5/ErikaOS_common_ee_primitives.inc **** /*
  58:Generated_Source\PSoC5/ErikaOS_common_ee_primitives.inc ****  * Nested Interrupts Handling
  59:Generated_Source\PSoC5/ErikaOS_common_ee_primitives.inc ****  */
  60:Generated_Source\PSoC5/ErikaOS_common_ee_primitives.inc **** 
  61:Generated_Source\PSoC5/ErikaOS_common_ee_primitives.inc **** /* If MemMap.h support is enabled (i.e. because memory protection): use it */
  62:Generated_Source\PSoC5/ErikaOS_common_ee_primitives.inc **** #ifdef EE_SUPPORT_MEMMAP_H
  63:Generated_Source\PSoC5/ErikaOS_common_ee_primitives.inc **** /* The following variables belong to ERIKA OS section: ee_kernel_bss */
  64:Generated_Source\PSoC5/ErikaOS_common_ee_primitives.inc **** #define OS_START_SEC_VAR_NOINIT
  65:Generated_Source\PSoC5/ErikaOS_common_ee_primitives.inc **** #include "MemMap.inc"
  66:Generated_Source\PSoC5/ErikaOS_common_ee_primitives.inc **** #endif /* EE_SUPPORT_MEMMAP_H */
  67:Generated_Source\PSoC5/ErikaOS_common_ee_primitives.inc **** 
  68:Generated_Source\PSoC5/ErikaOS_common_ee_primitives.inc **** extern EE_UREG EE_IRQ_nesting_level;
  69:Generated_Source\PSoC5/ErikaOS_common_ee_primitives.inc **** 
  70:Generated_Source\PSoC5/ErikaOS_common_ee_primitives.inc **** /* If MemMap.h support is enabled (i.e. because memory protection): use it */
  71:Generated_Source\PSoC5/ErikaOS_common_ee_primitives.inc **** #ifdef EE_SUPPORT_MEMMAP_H
  72:Generated_Source\PSoC5/ErikaOS_common_ee_primitives.inc **** #define OS_STOP_SEC_VAR_NOINIT
  73:Generated_Source\PSoC5/ErikaOS_common_ee_primitives.inc **** #include "MemMap.inc"
  74:Generated_Source\PSoC5/ErikaOS_common_ee_primitives.inc **** #endif /* EE_SUPPORT_MEMMAP_H */
  75:Generated_Source\PSoC5/ErikaOS_common_ee_primitives.inc **** 
  76:Generated_Source\PSoC5/ErikaOS_common_ee_primitives.inc **** /* can be called with interrupt enabled */
  77:Generated_Source\PSoC5/ErikaOS_common_ee_primitives.inc **** __INLINE__ EE_UREG  EE_hal_get_IRQ_nesting_level(void)
  78:Generated_Source\PSoC5/ErikaOS_common_ee_primitives.inc **** {
  79:Generated_Source\PSoC5/ErikaOS_common_ee_primitives.inc ****     return EE_IRQ_nesting_level;
  50              		.loc 3 79 0
  51 0006 4D4A     		ldr	r2, .L24+4
  52 0008 1268     		ldr	r2, [r2]
  53              	.LVL1:
  54              	.LBE94:
  55              	.LBE93:
  56              	.LBB95:
  57              	.LBB96:
  58              	.LBB97:
  59              		.file 4 "Generated_Source\\PSoC5\\ErikaOS_cortex_mx_ee_cpu.inc"
   1:Generated_Source\PSoC5/ErikaOS_cortex_mx_ee_cpu.inc **** /* ###*B*###
   2:Generated_Source\PSoC5/ErikaOS_cortex_mx_ee_cpu.inc ****  * ERIKA Enterprise - a tiny RTOS for small microcontrollers
   3:Generated_Source\PSoC5/ErikaOS_cortex_mx_ee_cpu.inc ****  *
ARM GAS  C:\Users\agila\AppData\Local\Temp\cck4bOkV.s 			page 9


   4:Generated_Source\PSoC5/ErikaOS_cortex_mx_ee_cpu.inc ****  * Copyright (C) 2002-2011  Evidence Srl
   5:Generated_Source\PSoC5/ErikaOS_cortex_mx_ee_cpu.inc ****  *
   6:Generated_Source\PSoC5/ErikaOS_cortex_mx_ee_cpu.inc ****  * This file is part of ERIKA Enterprise.
   7:Generated_Source\PSoC5/ErikaOS_cortex_mx_ee_cpu.inc ****  *
   8:Generated_Source\PSoC5/ErikaOS_cortex_mx_ee_cpu.inc ****  * ERIKA Enterprise is free software; you can redistribute it
   9:Generated_Source\PSoC5/ErikaOS_cortex_mx_ee_cpu.inc ****  * and/or modify it under the terms of the GNU General Public License
  10:Generated_Source\PSoC5/ErikaOS_cortex_mx_ee_cpu.inc ****  * version 2 as published by the Free Software Foundation, 
  11:Generated_Source\PSoC5/ErikaOS_cortex_mx_ee_cpu.inc ****  * (with a special exception described below).
  12:Generated_Source\PSoC5/ErikaOS_cortex_mx_ee_cpu.inc ****  *
  13:Generated_Source\PSoC5/ErikaOS_cortex_mx_ee_cpu.inc ****  * Linking this code statically or dynamically with other modules is
  14:Generated_Source\PSoC5/ErikaOS_cortex_mx_ee_cpu.inc ****  * making a combined work based on this code.  Thus, the terms and
  15:Generated_Source\PSoC5/ErikaOS_cortex_mx_ee_cpu.inc ****  * conditions of the GNU General Public License cover the whole
  16:Generated_Source\PSoC5/ErikaOS_cortex_mx_ee_cpu.inc ****  * combination.
  17:Generated_Source\PSoC5/ErikaOS_cortex_mx_ee_cpu.inc ****  *
  18:Generated_Source\PSoC5/ErikaOS_cortex_mx_ee_cpu.inc ****  * As a special exception, the copyright holders of this library give you
  19:Generated_Source\PSoC5/ErikaOS_cortex_mx_ee_cpu.inc ****  * permission to link this code with independent modules to produce an
  20:Generated_Source\PSoC5/ErikaOS_cortex_mx_ee_cpu.inc ****  * executable, regardless of the license terms of these independent
  21:Generated_Source\PSoC5/ErikaOS_cortex_mx_ee_cpu.inc ****  * modules, and to copy and distribute the resulting executable under
  22:Generated_Source\PSoC5/ErikaOS_cortex_mx_ee_cpu.inc ****  * terms of your choice, provided that you also meet, for each linked
  23:Generated_Source\PSoC5/ErikaOS_cortex_mx_ee_cpu.inc ****  * independent module, the terms and conditions of the license of that
  24:Generated_Source\PSoC5/ErikaOS_cortex_mx_ee_cpu.inc ****  * module.  An independent module is a module which is not derived from
  25:Generated_Source\PSoC5/ErikaOS_cortex_mx_ee_cpu.inc ****  * or based on this library.  If you modify this code, you may extend
  26:Generated_Source\PSoC5/ErikaOS_cortex_mx_ee_cpu.inc ****  * this exception to your version of the code, but you are not
  27:Generated_Source\PSoC5/ErikaOS_cortex_mx_ee_cpu.inc ****  * obligated to do so.  If you do not wish to do so, delete this
  28:Generated_Source\PSoC5/ErikaOS_cortex_mx_ee_cpu.inc ****  * exception statement from your version.
  29:Generated_Source\PSoC5/ErikaOS_cortex_mx_ee_cpu.inc ****  *
  30:Generated_Source\PSoC5/ErikaOS_cortex_mx_ee_cpu.inc ****  * ERIKA Enterprise is distributed in the hope that it will be
  31:Generated_Source\PSoC5/ErikaOS_cortex_mx_ee_cpu.inc ****  * useful, but WITHOUT ANY WARRANTY; without even the implied warranty
  32:Generated_Source\PSoC5/ErikaOS_cortex_mx_ee_cpu.inc ****  * of MERCHANTABILITY or FITNESS FOR A PARTICULAR PURPOSE.  See the
  33:Generated_Source\PSoC5/ErikaOS_cortex_mx_ee_cpu.inc ****  * GNU General Public License version 2 for more details.
  34:Generated_Source\PSoC5/ErikaOS_cortex_mx_ee_cpu.inc ****  *
  35:Generated_Source\PSoC5/ErikaOS_cortex_mx_ee_cpu.inc ****  * You should have received a copy of the GNU General Public License
  36:Generated_Source\PSoC5/ErikaOS_cortex_mx_ee_cpu.inc ****  * version 2 along with ERIKA Enterprise; if not, write to the
  37:Generated_Source\PSoC5/ErikaOS_cortex_mx_ee_cpu.inc ****  * Free Software Foundation, Inc., 51 Franklin Street, Fifth Floor,
  38:Generated_Source\PSoC5/ErikaOS_cortex_mx_ee_cpu.inc ****  * Boston, MA 02110-1301 USA.
  39:Generated_Source\PSoC5/ErikaOS_cortex_mx_ee_cpu.inc ****  * ###*E*### */
  40:Generated_Source\PSoC5/ErikaOS_cortex_mx_ee_cpu.inc **** 
  41:Generated_Source\PSoC5/ErikaOS_cortex_mx_ee_cpu.inc **** /** 
  42:Generated_Source\PSoC5/ErikaOS_cortex_mx_ee_cpu.inc **** 	@file ee_cpu.h
  43:Generated_Source\PSoC5/ErikaOS_cortex_mx_ee_cpu.inc **** 	@brief CPU-dependent part of HAL. Derived from pkg/cpu/pic30/inc/ee_cpu.h
  44:Generated_Source\PSoC5/ErikaOS_cortex_mx_ee_cpu.inc **** 	@author Gianluca Franchino
  45:Generated_Source\PSoC5/ErikaOS_cortex_mx_ee_cpu.inc **** 	@author Giuseppe Serano
  46:Generated_Source\PSoC5/ErikaOS_cortex_mx_ee_cpu.inc **** 	@date 2011
  47:Generated_Source\PSoC5/ErikaOS_cortex_mx_ee_cpu.inc **** */ 
  48:Generated_Source\PSoC5/ErikaOS_cortex_mx_ee_cpu.inc ****     
  49:Generated_Source\PSoC5/ErikaOS_cortex_mx_ee_cpu.inc **** /*
  50:Generated_Source\PSoC5/ErikaOS_cortex_mx_ee_cpu.inc ****  * PSoC Port and API Generation
  51:Generated_Source\PSoC5/ErikaOS_cortex_mx_ee_cpu.inc ****  * Carlos Fernando Meier Martinez
  52:Generated_Source\PSoC5/ErikaOS_cortex_mx_ee_cpu.inc ****  * Hochschule Darmstadt, Germany. 2017.
  53:Generated_Source\PSoC5/ErikaOS_cortex_mx_ee_cpu.inc ****  */
  54:Generated_Source\PSoC5/ErikaOS_cortex_mx_ee_cpu.inc **** 
  55:Generated_Source\PSoC5/ErikaOS_cortex_mx_ee_cpu.inc **** #ifndef __INCLUDE_CORTEX_MX_EE_CPU_H__
  56:Generated_Source\PSoC5/ErikaOS_cortex_mx_ee_cpu.inc **** #define __INCLUDE_CORTEX_MX_EE_CPU_H__
  57:Generated_Source\PSoC5/ErikaOS_cortex_mx_ee_cpu.inc **** 
  58:Generated_Source\PSoC5/ErikaOS_cortex_mx_ee_cpu.inc **** #include "ErikaOS_eecfg.inc"
  59:Generated_Source\PSoC5/ErikaOS_cortex_mx_ee_cpu.inc **** 
  60:Generated_Source\PSoC5/ErikaOS_cortex_mx_ee_cpu.inc **** 
ARM GAS  C:\Users\agila\AppData\Local\Temp\cck4bOkV.s 			page 10


  61:Generated_Source\PSoC5/ErikaOS_cortex_mx_ee_cpu.inc **** #ifdef __GNU__
  62:Generated_Source\PSoC5/ErikaOS_cortex_mx_ee_cpu.inc **** #include "ErikaOS_common_ee_compiler_gcc.inc"
  63:Generated_Source\PSoC5/ErikaOS_cortex_mx_ee_cpu.inc **** #endif
  64:Generated_Source\PSoC5/ErikaOS_cortex_mx_ee_cpu.inc **** 
  65:Generated_Source\PSoC5/ErikaOS_cortex_mx_ee_cpu.inc **** /* Initial stack offset (in words): Used in multistack. */
  66:Generated_Source\PSoC5/ErikaOS_cortex_mx_ee_cpu.inc **** #ifndef CORTEX_MX_INIT_TOS_OFFSET
  67:Generated_Source\PSoC5/ErikaOS_cortex_mx_ee_cpu.inc **** #define CORTEX_MX_INIT_TOS_OFFSET 10
  68:Generated_Source\PSoC5/ErikaOS_cortex_mx_ee_cpu.inc **** #endif
  69:Generated_Source\PSoC5/ErikaOS_cortex_mx_ee_cpu.inc **** 
  70:Generated_Source\PSoC5/ErikaOS_cortex_mx_ee_cpu.inc **** /*************************************************************************
  71:Generated_Source\PSoC5/ErikaOS_cortex_mx_ee_cpu.inc ****  HAL Types and structures
  72:Generated_Source\PSoC5/ErikaOS_cortex_mx_ee_cpu.inc ****  *************************************************************************/
  73:Generated_Source\PSoC5/ErikaOS_cortex_mx_ee_cpu.inc **** 
  74:Generated_Source\PSoC5/ErikaOS_cortex_mx_ee_cpu.inc **** /* Primitive data types */
  75:Generated_Source\PSoC5/ErikaOS_cortex_mx_ee_cpu.inc **** #include "ErikaOS_common_ee_types.inc"
  76:Generated_Source\PSoC5/ErikaOS_cortex_mx_ee_cpu.inc **** 
  77:Generated_Source\PSoC5/ErikaOS_cortex_mx_ee_cpu.inc **** typedef EE_UINT32 EE_UREG;
  78:Generated_Source\PSoC5/ErikaOS_cortex_mx_ee_cpu.inc **** typedef EE_INT32  EE_SREG;
  79:Generated_Source\PSoC5/ErikaOS_cortex_mx_ee_cpu.inc **** typedef EE_UINT32 EE_FREG;
  80:Generated_Source\PSoC5/ErikaOS_cortex_mx_ee_cpu.inc **** #define EE_UREG_SIZE 4
  81:Generated_Source\PSoC5/ErikaOS_cortex_mx_ee_cpu.inc **** 
  82:Generated_Source\PSoC5/ErikaOS_cortex_mx_ee_cpu.inc **** /* boolean type */
  83:Generated_Source\PSoC5/ErikaOS_cortex_mx_ee_cpu.inc **** #ifndef EE_TYPEBOOL
  84:Generated_Source\PSoC5/ErikaOS_cortex_mx_ee_cpu.inc **** typedef EE_UREG EE_TYPEBOOL;
  85:Generated_Source\PSoC5/ErikaOS_cortex_mx_ee_cpu.inc **** #endif
  86:Generated_Source\PSoC5/ErikaOS_cortex_mx_ee_cpu.inc **** 
  87:Generated_Source\PSoC5/ErikaOS_cortex_mx_ee_cpu.inc **** /* boolean true define */
  88:Generated_Source\PSoC5/ErikaOS_cortex_mx_ee_cpu.inc **** #ifndef EE_TRUE
  89:Generated_Source\PSoC5/ErikaOS_cortex_mx_ee_cpu.inc **** #define EE_TRUE ((EE_TYPEBOOL)1U)
  90:Generated_Source\PSoC5/ErikaOS_cortex_mx_ee_cpu.inc **** #endif
  91:Generated_Source\PSoC5/ErikaOS_cortex_mx_ee_cpu.inc **** 
  92:Generated_Source\PSoC5/ErikaOS_cortex_mx_ee_cpu.inc **** /* boolean false define */
  93:Generated_Source\PSoC5/ErikaOS_cortex_mx_ee_cpu.inc **** #ifndef EE_FALSE
  94:Generated_Source\PSoC5/ErikaOS_cortex_mx_ee_cpu.inc **** #define EE_FALSE ((EE_TYPEBOOL)0U)
  95:Generated_Source\PSoC5/ErikaOS_cortex_mx_ee_cpu.inc **** #endif
  96:Generated_Source\PSoC5/ErikaOS_cortex_mx_ee_cpu.inc **** 
  97:Generated_Source\PSoC5/ErikaOS_cortex_mx_ee_cpu.inc **** #define	EE_HWREG_PTR		volatile EE_UREG *
  98:Generated_Source\PSoC5/ErikaOS_cortex_mx_ee_cpu.inc **** #define	EE_HWREG_ADDR(x)	((EE_HWREG_PTR)(x))
  99:Generated_Source\PSoC5/ErikaOS_cortex_mx_ee_cpu.inc **** #define	EE_HWREG(x)		(*EE_HWREG_ADDR(x))
 100:Generated_Source\PSoC5/ErikaOS_cortex_mx_ee_cpu.inc **** 
 101:Generated_Source\PSoC5/ErikaOS_cortex_mx_ee_cpu.inc **** #ifdef __GNU__
 102:Generated_Source\PSoC5/ErikaOS_cortex_mx_ee_cpu.inc **** 
 103:Generated_Source\PSoC5/ErikaOS_cortex_mx_ee_cpu.inc **** /* Get current SP */
 104:Generated_Source\PSoC5/ErikaOS_cortex_mx_ee_cpu.inc **** __INLINE__ EE_UINT32  __current_sp(void)
 105:Generated_Source\PSoC5/ErikaOS_cortex_mx_ee_cpu.inc **** {
 106:Generated_Source\PSoC5/ErikaOS_cortex_mx_ee_cpu.inc **** EE_UINT32 temp;
 107:Generated_Source\PSoC5/ErikaOS_cortex_mx_ee_cpu.inc **** __ASM ("mov %0, sp" : "=r" (temp) : );
 108:Generated_Source\PSoC5/ErikaOS_cortex_mx_ee_cpu.inc **** return temp;
 109:Generated_Source\PSoC5/ErikaOS_cortex_mx_ee_cpu.inc **** }
 110:Generated_Source\PSoC5/ErikaOS_cortex_mx_ee_cpu.inc **** 
 111:Generated_Source\PSoC5/ErikaOS_cortex_mx_ee_cpu.inc **** /* Set a breakpoint */
 112:Generated_Source\PSoC5/ErikaOS_cortex_mx_ee_cpu.inc **** #define __breakpoint(value)	__ASM ("bkpt "#value)
 113:Generated_Source\PSoC5/ErikaOS_cortex_mx_ee_cpu.inc **** 
 114:Generated_Source\PSoC5/ErikaOS_cortex_mx_ee_cpu.inc **** #endif
 115:Generated_Source\PSoC5/ErikaOS_cortex_mx_ee_cpu.inc **** 
 116:Generated_Source\PSoC5/ErikaOS_cortex_mx_ee_cpu.inc **** /* ISR Priority representation type */
 117:Generated_Source\PSoC5/ErikaOS_cortex_mx_ee_cpu.inc **** typedef EE_UREG EE_TYPEISR2PRIO;
ARM GAS  C:\Users\agila\AppData\Local\Temp\cck4bOkV.s 			page 11


 118:Generated_Source\PSoC5/ErikaOS_cortex_mx_ee_cpu.inc **** 
 119:Generated_Source\PSoC5/ErikaOS_cortex_mx_ee_cpu.inc **** /* Thread IDs */
 120:Generated_Source\PSoC5/ErikaOS_cortex_mx_ee_cpu.inc **** typedef EE_INT32 EE_TID;
 121:Generated_Source\PSoC5/ErikaOS_cortex_mx_ee_cpu.inc **** 
 122:Generated_Source\PSoC5/ErikaOS_cortex_mx_ee_cpu.inc **** /* Thread IDs - unsigned version*/
 123:Generated_Source\PSoC5/ErikaOS_cortex_mx_ee_cpu.inc **** typedef EE_UINT32 EE_UTID;
 124:Generated_Source\PSoC5/ErikaOS_cortex_mx_ee_cpu.inc **** 
 125:Generated_Source\PSoC5/ErikaOS_cortex_mx_ee_cpu.inc **** /* Used by the common layer to decide whether to start a new thread */
 126:Generated_Source\PSoC5/ErikaOS_cortex_mx_ee_cpu.inc **** #define TID_IS_STACKED_MARK 0x80000000
 127:Generated_Source\PSoC5/ErikaOS_cortex_mx_ee_cpu.inc **** 
 128:Generated_Source\PSoC5/ErikaOS_cortex_mx_ee_cpu.inc **** /* EE_TYPEIRQ is currently unused */
 129:Generated_Source\PSoC5/ErikaOS_cortex_mx_ee_cpu.inc **** 
 130:Generated_Source\PSoC5/ErikaOS_cortex_mx_ee_cpu.inc **** /* XXX: define EE_TIME? */
 131:Generated_Source\PSoC5/ErikaOS_cortex_mx_ee_cpu.inc **** 
 132:Generated_Source\PSoC5/ErikaOS_cortex_mx_ee_cpu.inc **** /* Use the "standard" implementation */
 133:Generated_Source\PSoC5/ErikaOS_cortex_mx_ee_cpu.inc **** #include "ErikaOS_common_ee_hal_structs.inc"
 134:Generated_Source\PSoC5/ErikaOS_cortex_mx_ee_cpu.inc **** 
 135:Generated_Source\PSoC5/ErikaOS_cortex_mx_ee_cpu.inc **** /******************************************************************************
 136:Generated_Source\PSoC5/ErikaOS_cortex_mx_ee_cpu.inc ****  Application dependent data types
 137:Generated_Source\PSoC5/ErikaOS_cortex_mx_ee_cpu.inc ****  ******************************************************************************/
 138:Generated_Source\PSoC5/ErikaOS_cortex_mx_ee_cpu.inc **** 
 139:Generated_Source\PSoC5/ErikaOS_cortex_mx_ee_cpu.inc **** #ifdef	__HAS_TYPES_H__
 140:Generated_Source\PSoC5/ErikaOS_cortex_mx_ee_cpu.inc **** #include	"types.h"
 141:Generated_Source\PSoC5/ErikaOS_cortex_mx_ee_cpu.inc **** #endif
 142:Generated_Source\PSoC5/ErikaOS_cortex_mx_ee_cpu.inc **** 
 143:Generated_Source\PSoC5/ErikaOS_cortex_mx_ee_cpu.inc **** /******************************************************************************
 144:Generated_Source\PSoC5/ErikaOS_cortex_mx_ee_cpu.inc ****  CPU Peripherals
 145:Generated_Source\PSoC5/ErikaOS_cortex_mx_ee_cpu.inc ****  ******************************************************************************/
 146:Generated_Source\PSoC5/ErikaOS_cortex_mx_ee_cpu.inc **** 
 147:Generated_Source\PSoC5/ErikaOS_cortex_mx_ee_cpu.inc **** #ifdef __CORTEX_MX__
 148:Generated_Source\PSoC5/ErikaOS_cortex_mx_ee_cpu.inc **** #include "ErikaOS_cortex_mx_ee_nvic.inc"
 149:Generated_Source\PSoC5/ErikaOS_cortex_mx_ee_cpu.inc **** #include "ErikaOS_cortex_mx_ee_systick.inc"
 150:Generated_Source\PSoC5/ErikaOS_cortex_mx_ee_cpu.inc **** #endif
 151:Generated_Source\PSoC5/ErikaOS_cortex_mx_ee_cpu.inc **** 
 152:Generated_Source\PSoC5/ErikaOS_cortex_mx_ee_cpu.inc **** /******************************************************************************
 153:Generated_Source\PSoC5/ErikaOS_cortex_mx_ee_cpu.inc ****  HAL Variables
 154:Generated_Source\PSoC5/ErikaOS_cortex_mx_ee_cpu.inc ****  ******************************************************************************/
 155:Generated_Source\PSoC5/ErikaOS_cortex_mx_ee_cpu.inc **** 
 156:Generated_Source\PSoC5/ErikaOS_cortex_mx_ee_cpu.inc **** #ifdef __MULTI__
 157:Generated_Source\PSoC5/ErikaOS_cortex_mx_ee_cpu.inc **** 
 158:Generated_Source\PSoC5/ErikaOS_cortex_mx_ee_cpu.inc **** /* Top-of-stack of each private stack */
 159:Generated_Source\PSoC5/ErikaOS_cortex_mx_ee_cpu.inc **** extern struct EE_TOS EE_cortex_mx_system_tos[];
 160:Generated_Source\PSoC5/ErikaOS_cortex_mx_ee_cpu.inc **** //#define	EE_std_system_tos EE_cortex_mx_system_tos
 161:Generated_Source\PSoC5/ErikaOS_cortex_mx_ee_cpu.inc **** 
 162:Generated_Source\PSoC5/ErikaOS_cortex_mx_ee_cpu.inc **** /* Index of the current stack */
 163:Generated_Source\PSoC5/ErikaOS_cortex_mx_ee_cpu.inc **** extern EE_UREG EE_cortex_mx_active_tos;
 164:Generated_Source\PSoC5/ErikaOS_cortex_mx_ee_cpu.inc **** #define	EE_hal_active_tos EE_cortex_mx_active_tos
 165:Generated_Source\PSoC5/ErikaOS_cortex_mx_ee_cpu.inc **** 
 166:Generated_Source\PSoC5/ErikaOS_cortex_mx_ee_cpu.inc **** /*extern	EE_UREG EE_pic30_thread_tos[];
 167:Generated_Source\PSoC5/ErikaOS_cortex_mx_ee_cpu.inc **** #define	EE_std_thread_tos EE_pic30_thread_tos */
 168:Generated_Source\PSoC5/ErikaOS_cortex_mx_ee_cpu.inc **** #endif /* __MULTI__ */
 169:Generated_Source\PSoC5/ErikaOS_cortex_mx_ee_cpu.inc **** 
 170:Generated_Source\PSoC5/ErikaOS_cortex_mx_ee_cpu.inc **** /*********************************************************************
 171:Generated_Source\PSoC5/ErikaOS_cortex_mx_ee_cpu.inc ****  Cortex M0 interrupt disabling/enabling
 172:Generated_Source\PSoC5/ErikaOS_cortex_mx_ee_cpu.inc ****  *********************************************************************/
 173:Generated_Source\PSoC5/ErikaOS_cortex_mx_ee_cpu.inc **** 
 174:Generated_Source\PSoC5/ErikaOS_cortex_mx_ee_cpu.inc **** /* Used to check the value returned by EE_cortex_mx_disableIRQ */
ARM GAS  C:\Users\agila\AppData\Local\Temp\cck4bOkV.s 			page 12


 175:Generated_Source\PSoC5/ErikaOS_cortex_mx_ee_cpu.inc **** #define EE_cortex_mx_are_IRQs_enabled(ie) ((ie) ^ 1)
 176:Generated_Source\PSoC5/ErikaOS_cortex_mx_ee_cpu.inc **** 
 177:Generated_Source\PSoC5/ErikaOS_cortex_mx_ee_cpu.inc **** /**
 178:Generated_Source\PSoC5/ErikaOS_cortex_mx_ee_cpu.inc ****  * Enable interrupts
 179:Generated_Source\PSoC5/ErikaOS_cortex_mx_ee_cpu.inc ****  */
 180:Generated_Source\PSoC5/ErikaOS_cortex_mx_ee_cpu.inc **** __INLINE__ void  EE_cortex_mx_enableIRQ(void)
 181:Generated_Source\PSoC5/ErikaOS_cortex_mx_ee_cpu.inc **** {
 182:Generated_Source\PSoC5/ErikaOS_cortex_mx_ee_cpu.inc **** #ifdef __IAR__
 183:Generated_Source\PSoC5/ErikaOS_cortex_mx_ee_cpu.inc **** 	__ASM ("cpsie i");
 184:Generated_Source\PSoC5/ErikaOS_cortex_mx_ee_cpu.inc **** #else	/* __IAR__ */
 185:Generated_Source\PSoC5/ErikaOS_cortex_mx_ee_cpu.inc **** #ifdef __CCS__
 186:Generated_Source\PSoC5/ErikaOS_cortex_mx_ee_cpu.inc **** 	__ASM ("    cpsie    i\n");
 187:Generated_Source\PSoC5/ErikaOS_cortex_mx_ee_cpu.inc **** #else	/* __CCS__ */
 188:Generated_Source\PSoC5/ErikaOS_cortex_mx_ee_cpu.inc **** #ifdef __KEIL__
 189:Generated_Source\PSoC5/ErikaOS_cortex_mx_ee_cpu.inc **** 	__enable_irq();
 190:Generated_Source\PSoC5/ErikaOS_cortex_mx_ee_cpu.inc **** #else	/* __KEIL__ */
 191:Generated_Source\PSoC5/ErikaOS_cortex_mx_ee_cpu.inc **** 	__ASM volatile("cpsie i");
 192:Generated_Source\PSoC5/ErikaOS_cortex_mx_ee_cpu.inc **** #endif	/* !__KEIL__ */
 193:Generated_Source\PSoC5/ErikaOS_cortex_mx_ee_cpu.inc **** #endif	/* !__CCS__ */
 194:Generated_Source\PSoC5/ErikaOS_cortex_mx_ee_cpu.inc **** #endif	/* !__IAR__ */
 195:Generated_Source\PSoC5/ErikaOS_cortex_mx_ee_cpu.inc **** }
 196:Generated_Source\PSoC5/ErikaOS_cortex_mx_ee_cpu.inc **** 
 197:Generated_Source\PSoC5/ErikaOS_cortex_mx_ee_cpu.inc **** /**
 198:Generated_Source\PSoC5/ErikaOS_cortex_mx_ee_cpu.inc ****  * Disable interrupts
 199:Generated_Source\PSoC5/ErikaOS_cortex_mx_ee_cpu.inc ****  */
 200:Generated_Source\PSoC5/ErikaOS_cortex_mx_ee_cpu.inc **** __INLINE__ void  EE_cortex_mx_disableIRQ(void)
 201:Generated_Source\PSoC5/ErikaOS_cortex_mx_ee_cpu.inc **** {
 202:Generated_Source\PSoC5/ErikaOS_cortex_mx_ee_cpu.inc **** #ifdef __IAR__
 203:Generated_Source\PSoC5/ErikaOS_cortex_mx_ee_cpu.inc **** 	__ASM ("cpsid i");
 204:Generated_Source\PSoC5/ErikaOS_cortex_mx_ee_cpu.inc **** #else	/* __IAR__ */
 205:Generated_Source\PSoC5/ErikaOS_cortex_mx_ee_cpu.inc **** #ifdef __CCS__
 206:Generated_Source\PSoC5/ErikaOS_cortex_mx_ee_cpu.inc **** 	__ASM ("    cpsid    i\n");
 207:Generated_Source\PSoC5/ErikaOS_cortex_mx_ee_cpu.inc **** #else	/* __CCS__ */
 208:Generated_Source\PSoC5/ErikaOS_cortex_mx_ee_cpu.inc **** #ifdef __KEIL__
 209:Generated_Source\PSoC5/ErikaOS_cortex_mx_ee_cpu.inc **** 	__disable_irq();
 210:Generated_Source\PSoC5/ErikaOS_cortex_mx_ee_cpu.inc **** #else	/* __KEIL__ */
 211:Generated_Source\PSoC5/ErikaOS_cortex_mx_ee_cpu.inc **** 	__ASM volatile("cpsid i");
 212:Generated_Source\PSoC5/ErikaOS_cortex_mx_ee_cpu.inc **** #endif	/* !__KEIL__ */
 213:Generated_Source\PSoC5/ErikaOS_cortex_mx_ee_cpu.inc **** #endif	/* !__CCS__ */
 214:Generated_Source\PSoC5/ErikaOS_cortex_mx_ee_cpu.inc **** #endif	/* !__IAR__ */
 215:Generated_Source\PSoC5/ErikaOS_cortex_mx_ee_cpu.inc **** }
 216:Generated_Source\PSoC5/ErikaOS_cortex_mx_ee_cpu.inc **** 
 217:Generated_Source\PSoC5/ErikaOS_cortex_mx_ee_cpu.inc **** /**
 218:Generated_Source\PSoC5/ErikaOS_cortex_mx_ee_cpu.inc ****  * Resume interrupts
 219:Generated_Source\PSoC5/ErikaOS_cortex_mx_ee_cpu.inc ****  */
 220:Generated_Source\PSoC5/ErikaOS_cortex_mx_ee_cpu.inc **** __INLINE__ void  EE_cortex_mx_resumeIRQ(EE_FREG f)
 221:Generated_Source\PSoC5/ErikaOS_cortex_mx_ee_cpu.inc **** {
 222:Generated_Source\PSoC5/ErikaOS_cortex_mx_ee_cpu.inc **** #ifdef __IAR__
 223:Generated_Source\PSoC5/ErikaOS_cortex_mx_ee_cpu.inc **** 	__set_PRIMASK(f);
 224:Generated_Source\PSoC5/ErikaOS_cortex_mx_ee_cpu.inc **** #else	/* __IAR__ */
 225:Generated_Source\PSoC5/ErikaOS_cortex_mx_ee_cpu.inc **** #ifdef __CCS__
 226:Generated_Source\PSoC5/ErikaOS_cortex_mx_ee_cpu.inc **** 	__ASM ("    msr    primask, r0\n");
 227:Generated_Source\PSoC5/ErikaOS_cortex_mx_ee_cpu.inc **** #else	/* __CCS__ */
 228:Generated_Source\PSoC5/ErikaOS_cortex_mx_ee_cpu.inc **** #ifdef __KEIL__
 229:Generated_Source\PSoC5/ErikaOS_cortex_mx_ee_cpu.inc **** 	register EE_FREG PRIMASK __ASM("primask");
 230:Generated_Source\PSoC5/ErikaOS_cortex_mx_ee_cpu.inc **** 	PRIMASK = f;
 231:Generated_Source\PSoC5/ErikaOS_cortex_mx_ee_cpu.inc **** #else	/* __KEIL__ */
ARM GAS  C:\Users\agila\AppData\Local\Temp\cck4bOkV.s 			page 13


 232:Generated_Source\PSoC5/ErikaOS_cortex_mx_ee_cpu.inc **** 	__ASM volatile("msr primask, %0" :: "r" (f));
 233:Generated_Source\PSoC5/ErikaOS_cortex_mx_ee_cpu.inc **** #endif	/* !__KEIL__ */
 234:Generated_Source\PSoC5/ErikaOS_cortex_mx_ee_cpu.inc **** #endif	/* !__CCS__ */
 235:Generated_Source\PSoC5/ErikaOS_cortex_mx_ee_cpu.inc **** #endif	/* !__IAR__ */
 236:Generated_Source\PSoC5/ErikaOS_cortex_mx_ee_cpu.inc **** }
 237:Generated_Source\PSoC5/ErikaOS_cortex_mx_ee_cpu.inc **** 
 238:Generated_Source\PSoC5/ErikaOS_cortex_mx_ee_cpu.inc **** /**
 239:Generated_Source\PSoC5/ErikaOS_cortex_mx_ee_cpu.inc ****  * Suspend interrupts
 240:Generated_Source\PSoC5/ErikaOS_cortex_mx_ee_cpu.inc ****  */
 241:Generated_Source\PSoC5/ErikaOS_cortex_mx_ee_cpu.inc **** __INLINE__ EE_FREG  EE_cortex_mx_suspendIRQ(void)
 242:Generated_Source\PSoC5/ErikaOS_cortex_mx_ee_cpu.inc **** {
 243:Generated_Source\PSoC5/ErikaOS_cortex_mx_ee_cpu.inc **** #ifndef __CCS__
 244:Generated_Source\PSoC5/ErikaOS_cortex_mx_ee_cpu.inc **** 	EE_FREG istat;
 245:Generated_Source\PSoC5/ErikaOS_cortex_mx_ee_cpu.inc **** #endif
 246:Generated_Source\PSoC5/ErikaOS_cortex_mx_ee_cpu.inc **** #ifdef __IAR__
 247:Generated_Source\PSoC5/ErikaOS_cortex_mx_ee_cpu.inc **** 	 istat = __get_PRIMASK();
 248:Generated_Source\PSoC5/ErikaOS_cortex_mx_ee_cpu.inc **** 	__ASM ("cpsid i");
 249:Generated_Source\PSoC5/ErikaOS_cortex_mx_ee_cpu.inc **** #else	/* __IAR__ */
 250:Generated_Source\PSoC5/ErikaOS_cortex_mx_ee_cpu.inc **** #ifdef __CCS__
 251:Generated_Source\PSoC5/ErikaOS_cortex_mx_ee_cpu.inc **** 	__ASM ("    mrs     r0, primask\n"
 252:Generated_Source\PSoC5/ErikaOS_cortex_mx_ee_cpu.inc **** 	       "    cpsid   i\n"
 253:Generated_Source\PSoC5/ErikaOS_cortex_mx_ee_cpu.inc **** 	       "    bx      lr\n");
 254:Generated_Source\PSoC5/ErikaOS_cortex_mx_ee_cpu.inc **** #else	/* __CCS__ */
 255:Generated_Source\PSoC5/ErikaOS_cortex_mx_ee_cpu.inc **** #ifdef __KEIL__
 256:Generated_Source\PSoC5/ErikaOS_cortex_mx_ee_cpu.inc **** 	register EE_FREG PRIMASK __ASM("primask");
 257:Generated_Source\PSoC5/ErikaOS_cortex_mx_ee_cpu.inc **** 	istat = PRIMASK;
 258:Generated_Source\PSoC5/ErikaOS_cortex_mx_ee_cpu.inc **** 	__disable_irq();
 259:Generated_Source\PSoC5/ErikaOS_cortex_mx_ee_cpu.inc **** #else	/* __KEIL__ */
 260:Generated_Source\PSoC5/ErikaOS_cortex_mx_ee_cpu.inc **** 	__ASM volatile ("mrs %0, primask" : "=r" (istat) );
  60              		.loc 4 260 0
  61              		.syntax unified
  62              	@ 260 "Generated_Source\PSoC5\ErikaOS_cortex_mx_ee_cpu.inc" 1
  63 000a EFF31085 		mrs r5, primask
  64              	@ 0 "" 2
  65              	.LVL2:
 261:Generated_Source\PSoC5/ErikaOS_cortex_mx_ee_cpu.inc **** 	__ASM volatile ("cpsid i");
  66              		.loc 4 261 0
  67              	@ 261 "Generated_Source\PSoC5\ErikaOS_cortex_mx_ee_cpu.inc" 1
  68 000e 72B6     		cpsid i
  69              	@ 0 "" 2
  70              	.LVL3:
  71              		.thumb
  72              		.syntax unified
  73              	.LBE97:
  74              	.LBE96:
  75              	.LBE95:
  76:Generated_Source\PSoC5/ErikaOS_ee_ulockres.c ****   /* Error Value */
  77:Generated_Source\PSoC5/ErikaOS_ee_ulockres.c ****   register StatusType ev;
  78:Generated_Source\PSoC5/ErikaOS_ee_ulockres.c ****   /* Primitive Lock Variable */
  79:Generated_Source\PSoC5/ErikaOS_ee_ulockres.c **** #if (!defined(__EE_MEMORY_PROTECTION__)) || (defined(__OO_ISR2_RESOURCES__))
  80:Generated_Source\PSoC5/ErikaOS_ee_ulockres.c ****   register EE_FREG flag;
  81:Generated_Source\PSoC5/ErikaOS_ee_ulockres.c **** #endif /* !__EE_MEMORY_PROTECTION__ || __OO_ISR2_RESOURCES__ */
  82:Generated_Source\PSoC5/ErikaOS_ee_ulockres.c **** #ifdef __MSRP__
  83:Generated_Source\PSoC5/ErikaOS_ee_ulockres.c ****   register EE_UREG isGlobal;
  84:Generated_Source\PSoC5/ErikaOS_ee_ulockres.c **** #endif /* __MSRP__ */
  85:Generated_Source\PSoC5/ErikaOS_ee_ulockres.c **** #if (defined(__OO_EXTENDED_STATUS__)) || (defined(__OO_ISR2_RESOURCES__)) \
  86:Generated_Source\PSoC5/ErikaOS_ee_ulockres.c ****   || (defined(__OO_ORTI_PRIORITY__))
ARM GAS  C:\Users\agila\AppData\Local\Temp\cck4bOkV.s 			page 14


  87:Generated_Source\PSoC5/ErikaOS_ee_ulockres.c ****   register EE_TID current = EE_stk_queryfirst();
  88:Generated_Source\PSoC5/ErikaOS_ee_ulockres.c **** #endif /* __OO_EXTENDED_STATUS__ || __OO_ISR2_RESOURCES__ ||
  89:Generated_Source\PSoC5/ErikaOS_ee_ulockres.c ****   __OO_ORTI_PRIORITY__ */
  90:Generated_Source\PSoC5/ErikaOS_ee_ulockres.c ****   /* To cache inside task info */
  91:Generated_Source\PSoC5/ErikaOS_ee_ulockres.c ****   register EE_TYPEBOOL inside_task = (EE_hal_get_IRQ_nesting_level() == 0U);
  92:Generated_Source\PSoC5/ErikaOS_ee_ulockres.c ****   /* Primitive Lock Procedure */
  93:Generated_Source\PSoC5/ErikaOS_ee_ulockres.c ****   EE_OS_ENTER_CRITICAL_SECTION();
  94:Generated_Source\PSoC5/ErikaOS_ee_ulockres.c **** 
  95:Generated_Source\PSoC5/ErikaOS_ee_ulockres.c ****   EE_ORTI_set_service_in(EE_SERVICETRACE_RELEASERESOURCE);
  96:Generated_Source\PSoC5/ErikaOS_ee_ulockres.c **** 
  97:Generated_Source\PSoC5/ErikaOS_ee_ulockres.c **** #if (__OO_configUSE_TRACE_FACILITY == 1)
  98:Generated_Source\PSoC5/ErikaOS_ee_ulockres.c ****     traceRESOURCE_RELEASE_RESOURCE(ResID, ev)
  99:Generated_Source\PSoC5/ErikaOS_ee_ulockres.c **** #endif
 100:Generated_Source\PSoC5/ErikaOS_ee_ulockres.c **** 
 101:Generated_Source\PSoC5/ErikaOS_ee_ulockres.c ****   EE_as_monitoring_the_stack();
 102:Generated_Source\PSoC5/ErikaOS_ee_ulockres.c **** 
 103:Generated_Source\PSoC5/ErikaOS_ee_ulockres.c **** #ifdef __MSRP__
 104:Generated_Source\PSoC5/ErikaOS_ee_ulockres.c ****   isGlobal = EE_oo_isGlobal(ResID);
 105:Generated_Source\PSoC5/ErikaOS_ee_ulockres.c ****   ResID = ResID & ~EE_GLOBAL_MUTEX;
 106:Generated_Source\PSoC5/ErikaOS_ee_ulockres.c **** #endif /* __MSRP__ */
 107:Generated_Source\PSoC5/ErikaOS_ee_ulockres.c **** 
 108:Generated_Source\PSoC5/ErikaOS_ee_ulockres.c **** #ifdef __OO_ISR2_RESOURCES__
 109:Generated_Source\PSoC5/ErikaOS_ee_ulockres.c ****   /* If actually we are inside an ISR2 get the fake TID to access stack */
 110:Generated_Source\PSoC5/ErikaOS_ee_ulockres.c ****   if ( inside_task == EE_FALSE ) {
  76              		.loc 1 110 0
  77 0010 42B1     		cbz	r2, .L2
  78              	.LBB98:
  79              	.LBB99:
 241:Generated_Source\PSoC5/ErikaOS_ee_oo_internal.inc **** }
 242:Generated_Source\PSoC5/ErikaOS_ee_oo_internal.inc **** #endif /* __PRIVATE_STK_QUERYFIRST__ */
 243:Generated_Source\PSoC5/ErikaOS_ee_oo_internal.inc **** 
 244:Generated_Source\PSoC5/ErikaOS_ee_oo_internal.inc **** /* This function notifies a tick to a hardware counter.
 245:Generated_Source\PSoC5/ErikaOS_ee_oo_internal.inc ****    That is, the counter is
 246:Generated_Source\PSoC5/ErikaOS_ee_oo_internal.inc ****    incremented by 1.  It must be called into an ISR2 or into a
 247:Generated_Source\PSoC5/ErikaOS_ee_oo_internal.inc ****    task notify that the event linked to the counter occurred.
 248:Generated_Source\PSoC5/ErikaOS_ee_oo_internal.inc **** 
 249:Generated_Source\PSoC5/ErikaOS_ee_oo_internal.inc ****    The function will also implement the notification of expired alarms
 250:Generated_Source\PSoC5/ErikaOS_ee_oo_internal.inc ****    (calling an alarm callback, setting an event, or activating a
 251:Generated_Source\PSoC5/ErikaOS_ee_oo_internal.inc ****    task).
 252:Generated_Source\PSoC5/ErikaOS_ee_oo_internal.inc **** 
 253:Generated_Source\PSoC5/ErikaOS_ee_oo_internal.inc ****    The function can be considered atomic, and NO RESCHEDULING will
 254:Generated_Source\PSoC5/ErikaOS_ee_oo_internal.inc ****    take place after the execution of this function. To implement the
 255:Generated_Source\PSoC5/ErikaOS_ee_oo_internal.inc ****    rescheduling at task level, you can use the Schedule() or the
 256:Generated_Source\PSoC5/ErikaOS_ee_oo_internal.inc ****    ForceSchedule() functions just after this notification.
 257:Generated_Source\PSoC5/ErikaOS_ee_oo_internal.inc **** 
 258:Generated_Source\PSoC5/ErikaOS_ee_oo_internal.inc ****    see also internal.h
 259:Generated_Source\PSoC5/ErikaOS_ee_oo_internal.inc **** */
 260:Generated_Source\PSoC5/ErikaOS_ee_oo_internal.inc **** #if (!defined(__OO_NO_ALARMS__)) || (defined(EE_AS_SCHEDULETABLES__))
 261:Generated_Source\PSoC5/ErikaOS_ee_oo_internal.inc **** 
 262:Generated_Source\PSoC5/ErikaOS_ee_oo_internal.inc **** StatusType EE_oo_IncrementCounterHardware(CounterType CounterID);
 263:Generated_Source\PSoC5/ErikaOS_ee_oo_internal.inc **** void       EE_oo_IncrementCounterImplementation(CounterType CounterID);
 264:Generated_Source\PSoC5/ErikaOS_ee_oo_internal.inc **** 
 265:Generated_Source\PSoC5/ErikaOS_ee_oo_internal.inc **** /* kernel internal API */
 266:Generated_Source\PSoC5/ErikaOS_ee_oo_internal.inc **** #define IncrementCounterHardware EE_oo_IncrementCounterHardware
 267:Generated_Source\PSoC5/ErikaOS_ee_oo_internal.inc **** 
 268:Generated_Source\PSoC5/ErikaOS_ee_oo_internal.inc **** /* Helper function (0 as increment means next tick)*/
 269:Generated_Source\PSoC5/ErikaOS_ee_oo_internal.inc **** void EE_oo_counter_object_insert( CounterObjectType ObjectID, TickType
ARM GAS  C:\Users\agila\AppData\Local\Temp\cck4bOkV.s 			page 15


 270:Generated_Source\PSoC5/ErikaOS_ee_oo_internal.inc ****   increment );
 271:Generated_Source\PSoC5/ErikaOS_ee_oo_internal.inc **** 
 272:Generated_Source\PSoC5/ErikaOS_ee_oo_internal.inc **** #if defined (EE_COUNTER_OBJECTS_ROM_SIZE)
 273:Generated_Source\PSoC5/ErikaOS_ee_oo_internal.inc **** #if (EE_COUNTER_OBJECTS_ROM_SIZE > 0)
 274:Generated_Source\PSoC5/ErikaOS_ee_oo_internal.inc **** __INLINE__ void 
 275:Generated_Source\PSoC5/ErikaOS_ee_oo_internal.inc ****   EE_oo_handle_abs_counter_object_insertion( CounterObjectType ObjectID,
 276:Generated_Source\PSoC5/ErikaOS_ee_oo_internal.inc ****     TickType absstart, TickType abscycle ) 
 277:Generated_Source\PSoC5/ErikaOS_ee_oo_internal.inc **** {
 278:Generated_Source\PSoC5/ErikaOS_ee_oo_internal.inc ****   /* These are used to evaluate alarm time handling wrap around */
 279:Generated_Source\PSoC5/ErikaOS_ee_oo_internal.inc ****   register TickType           alarm_time;
 280:Generated_Source\PSoC5/ErikaOS_ee_oo_internal.inc ****   register TickType           start_rel;
 281:Generated_Source\PSoC5/ErikaOS_ee_oo_internal.inc ****   register CounterType const  cnt = EE_oo_counter_object_ROM[ObjectID].c;
 282:Generated_Source\PSoC5/ErikaOS_ee_oo_internal.inc **** 
 283:Generated_Source\PSoC5/ErikaOS_ee_oo_internal.inc ****   /* first, use the alarm and set the cycle */
 284:Generated_Source\PSoC5/ErikaOS_ee_oo_internal.inc ****   EE_oo_counter_object_RAM[ObjectID].used = EE_TRUE;
 285:Generated_Source\PSoC5/ErikaOS_ee_oo_internal.inc ****   EE_oo_counter_object_RAM[ObjectID].cntcycle = abscycle;
 286:Generated_Source\PSoC5/ErikaOS_ee_oo_internal.inc **** 
 287:Generated_Source\PSoC5/ErikaOS_ee_oo_internal.inc ****   /* Handling wrap around for alarm time */
 288:Generated_Source\PSoC5/ErikaOS_ee_oo_internal.inc ****   start_rel = absstart - EE_counter_RAM[cnt].value;
 289:Generated_Source\PSoC5/ErikaOS_ee_oo_internal.inc **** 
 290:Generated_Source\PSoC5/ErikaOS_ee_oo_internal.inc ****   /*  When will be here start value will be already checked against counter
 291:Generated_Source\PSoC5/ErikaOS_ee_oo_internal.inc ****       max allowed value */
 292:Generated_Source\PSoC5/ErikaOS_ee_oo_internal.inc ****   if ( start_rel == 0U ) {
 293:Generated_Source\PSoC5/ErikaOS_ee_oo_internal.inc ****     /* start_rel == 0U -> the alarm should start now or next time that counter
 294:Generated_Source\PSoC5/ErikaOS_ee_oo_internal.inc ****        has this value. Has been chosen the second option */
 295:Generated_Source\PSoC5/ErikaOS_ee_oo_internal.inc ****     alarm_time = EE_counter_ROM[cnt].maxallowedvalue;
 296:Generated_Source\PSoC5/ErikaOS_ee_oo_internal.inc ****   } else if ( start_rel < EE_TYPETICK_HALF_VALUE ) {
 297:Generated_Source\PSoC5/ErikaOS_ee_oo_internal.inc ****     /* Normal behavior */
 298:Generated_Source\PSoC5/ErikaOS_ee_oo_internal.inc ****     alarm_time = start_rel - 1U;
 299:Generated_Source\PSoC5/ErikaOS_ee_oo_internal.inc ****   } else {
 300:Generated_Source\PSoC5/ErikaOS_ee_oo_internal.inc ****     /* start_rel is "negative" in this case (unsigned wrap around do the
 301:Generated_Source\PSoC5/ErikaOS_ee_oo_internal.inc ****        work) */
 302:Generated_Source\PSoC5/ErikaOS_ee_oo_internal.inc ****     alarm_time = EE_counter_ROM[cnt].maxallowedvalue + start_rel;
 303:Generated_Source\PSoC5/ErikaOS_ee_oo_internal.inc ****   }
 304:Generated_Source\PSoC5/ErikaOS_ee_oo_internal.inc **** 
 305:Generated_Source\PSoC5/ErikaOS_ee_oo_internal.inc ****   /* Set alarm with a relative amount of time (alarm_time already is a "0 as
 306:Generated_Source\PSoC5/ErikaOS_ee_oo_internal.inc ****      next tick" value)*/
 307:Generated_Source\PSoC5/ErikaOS_ee_oo_internal.inc ****   EE_oo_counter_object_insert(ObjectID, alarm_time);
 308:Generated_Source\PSoC5/ErikaOS_ee_oo_internal.inc **** }
 309:Generated_Source\PSoC5/ErikaOS_ee_oo_internal.inc **** 
 310:Generated_Source\PSoC5/ErikaOS_ee_oo_internal.inc **** __INLINE__ void 
 311:Generated_Source\PSoC5/ErikaOS_ee_oo_internal.inc ****   EE_oo_handle_rel_counter_object_insertion( CounterObjectType ObjectID,
 312:Generated_Source\PSoC5/ErikaOS_ee_oo_internal.inc ****     TickType increment, TickType relcycle )
 313:Generated_Source\PSoC5/ErikaOS_ee_oo_internal.inc **** {
 314:Generated_Source\PSoC5/ErikaOS_ee_oo_internal.inc **** 
 315:Generated_Source\PSoC5/ErikaOS_ee_oo_internal.inc ****   /* first, use the alarm and set the cycle */
 316:Generated_Source\PSoC5/ErikaOS_ee_oo_internal.inc ****   EE_oo_counter_object_RAM[ObjectID].used = EE_TRUE;
 317:Generated_Source\PSoC5/ErikaOS_ee_oo_internal.inc ****   EE_oo_counter_object_RAM[ObjectID].cntcycle = relcycle;
 318:Generated_Source\PSoC5/ErikaOS_ee_oo_internal.inc **** 
 319:Generated_Source\PSoC5/ErikaOS_ee_oo_internal.inc ****   /* then, insert the task into the delta queue with an increment equal
 320:Generated_Source\PSoC5/ErikaOS_ee_oo_internal.inc ****      (increment - 1U) increment equal to 0 means next tick */
 321:Generated_Source\PSoC5/ErikaOS_ee_oo_internal.inc ****   EE_oo_counter_object_insert(ObjectID, (increment - 1U));
 322:Generated_Source\PSoC5/ErikaOS_ee_oo_internal.inc **** }
 323:Generated_Source\PSoC5/ErikaOS_ee_oo_internal.inc **** 
 324:Generated_Source\PSoC5/ErikaOS_ee_oo_internal.inc **** /* cancellation */
 325:Generated_Source\PSoC5/ErikaOS_ee_oo_internal.inc **** __INLINE__ void  EE_oo_handle_counter_object_cancellation(
 326:Generated_Source\PSoC5/ErikaOS_ee_oo_internal.inc ****   CounterObjectType ObjectID )
ARM GAS  C:\Users\agila\AppData\Local\Temp\cck4bOkV.s 			page 16


 327:Generated_Source\PSoC5/ErikaOS_ee_oo_internal.inc **** {
 328:Generated_Source\PSoC5/ErikaOS_ee_oo_internal.inc ****   register CounterObjectType current, previous;
 329:Generated_Source\PSoC5/ErikaOS_ee_oo_internal.inc ****   register CounterType       ct      = EE_oo_counter_object_ROM[ObjectID].c;
 330:Generated_Source\PSoC5/ErikaOS_ee_oo_internal.inc **** 
 331:Generated_Source\PSoC5/ErikaOS_ee_oo_internal.inc ****   /* to compute the relative value in ticks, we have to follow the counter
 332:Generated_Source\PSoC5/ErikaOS_ee_oo_internal.inc ****      delay chain */
 333:Generated_Source\PSoC5/ErikaOS_ee_oo_internal.inc ****   current = EE_counter_RAM[ct].first;
 334:Generated_Source\PSoC5/ErikaOS_ee_oo_internal.inc **** 
 335:Generated_Source\PSoC5/ErikaOS_ee_oo_internal.inc ****   if ( current == ObjectID ) {
 336:Generated_Source\PSoC5/ErikaOS_ee_oo_internal.inc ****     /* the alarm is the first one in the delta queue */
 337:Generated_Source\PSoC5/ErikaOS_ee_oo_internal.inc ****     EE_counter_RAM[ct].first = EE_oo_counter_object_RAM[ObjectID].next;
 338:Generated_Source\PSoC5/ErikaOS_ee_oo_internal.inc ****   } else {
 339:Generated_Source\PSoC5/ErikaOS_ee_oo_internal.inc ****     /* the alarm is not the first one in the delta queue */
 340:Generated_Source\PSoC5/ErikaOS_ee_oo_internal.inc ****     /* Find it */
 341:Generated_Source\PSoC5/ErikaOS_ee_oo_internal.inc ****     do {
 342:Generated_Source\PSoC5/ErikaOS_ee_oo_internal.inc ****       previous = current;
 343:Generated_Source\PSoC5/ErikaOS_ee_oo_internal.inc ****       current = EE_oo_counter_object_RAM[current].next;
 344:Generated_Source\PSoC5/ErikaOS_ee_oo_internal.inc ****     } while ( current != ObjectID );
 345:Generated_Source\PSoC5/ErikaOS_ee_oo_internal.inc ****     /* remove it from the queue */
 346:Generated_Source\PSoC5/ErikaOS_ee_oo_internal.inc ****     EE_oo_counter_object_RAM[previous].next =
 347:Generated_Source\PSoC5/ErikaOS_ee_oo_internal.inc ****       EE_oo_counter_object_RAM[ObjectID].next;
 348:Generated_Source\PSoC5/ErikaOS_ee_oo_internal.inc ****   }
 349:Generated_Source\PSoC5/ErikaOS_ee_oo_internal.inc ****   /* Adjust delta value */
 350:Generated_Source\PSoC5/ErikaOS_ee_oo_internal.inc ****   if ( EE_oo_counter_object_RAM[ObjectID].next != INVALID_COUNTER_OBJECT ) {
 351:Generated_Source\PSoC5/ErikaOS_ee_oo_internal.inc ****     EE_oo_counter_object_RAM[EE_oo_counter_object_RAM[ObjectID].next].delta +=
 352:Generated_Source\PSoC5/ErikaOS_ee_oo_internal.inc ****       EE_oo_counter_object_RAM[ObjectID].delta;
 353:Generated_Source\PSoC5/ErikaOS_ee_oo_internal.inc ****   }
 354:Generated_Source\PSoC5/ErikaOS_ee_oo_internal.inc **** 
 355:Generated_Source\PSoC5/ErikaOS_ee_oo_internal.inc ****   EE_oo_counter_object_RAM[ObjectID].used = EE_FALSE;
 356:Generated_Source\PSoC5/ErikaOS_ee_oo_internal.inc **** }
 357:Generated_Source\PSoC5/ErikaOS_ee_oo_internal.inc **** #endif /* EE_COUNTER_OBJECTS_ROM_SIZE */
 358:Generated_Source\PSoC5/ErikaOS_ee_oo_internal.inc **** #endif /* EE_COUNTER_OBJECTS_ROM_SIZE > 0 */
 359:Generated_Source\PSoC5/ErikaOS_ee_oo_internal.inc **** #endif /* !__OO_NO_ALARMS__ || EE_AS_SCHEDULETABLES__ */
 360:Generated_Source\PSoC5/ErikaOS_ee_oo_internal.inc **** 
 361:Generated_Source\PSoC5/ErikaOS_ee_oo_internal.inc **** /*************************************************************************
 362:Generated_Source\PSoC5/ErikaOS_ee_oo_internal.inc ****  HAL extensions
 363:Generated_Source\PSoC5/ErikaOS_ee_oo_internal.inc ****  *************************************************************************/
 364:Generated_Source\PSoC5/ErikaOS_ee_oo_internal.inc **** 
 365:Generated_Source\PSoC5/ErikaOS_ee_oo_internal.inc ****  /* these are the functions that have been inserted to support tha OO layer
 366:Generated_Source\PSoC5/ErikaOS_ee_oo_internal.inc ****     under the EE HAL.
 367:Generated_Source\PSoC5/ErikaOS_ee_oo_internal.inc ****     
 368:Generated_Source\PSoC5/ErikaOS_ee_oo_internal.inc ****     - all the functions for interrupt handling (13.3)
 369:Generated_Source\PSoC5/ErikaOS_ee_oo_internal.inc ****     - EE_hal_begin_nested_primitive
 370:Generated_Source\PSoC5/ErikaOS_ee_oo_internal.inc ****       EE_hal_end_nested_primitive 
 371:Generated_Source\PSoC5/ErikaOS_ee_oo_internal.inc ****       (for primitives that can be called both into a task and into an ISR2
 372:Generated_Source\PSoC5/ErikaOS_ee_oo_internal.inc ****     - EE_hal_terminate_task(EE_TID t)
 373:Generated_Source\PSoC5/ErikaOS_ee_oo_internal.inc ****     - EE_hal_terminate_savestk(EE_TID t)
 374:Generated_Source\PSoC5/ErikaOS_ee_oo_internal.inc ****       EE_oo_preemption_point() execute task preemption if is needed
 375:Generated_Source\PSoC5/ErikaOS_ee_oo_internal.inc ****     - EE_oo_shutdown() if not redefined it does for(;;);
 376:Generated_Source\PSoC5/ErikaOS_ee_oo_internal.inc ****     - All the alarm constants listed in 13.6.4
 377:Generated_Source\PSoC5/ErikaOS_ee_oo_internal.inc ****  */
 378:Generated_Source\PSoC5/ErikaOS_ee_oo_internal.inc **** 
 379:Generated_Source\PSoC5/ErikaOS_ee_oo_internal.inc **** 
 380:Generated_Source\PSoC5/ErikaOS_ee_oo_internal.inc **** /***************************************************************************
 381:Generated_Source\PSoC5/ErikaOS_ee_oo_internal.inc ****  * Internal data structures and functions
 382:Generated_Source\PSoC5/ErikaOS_ee_oo_internal.inc ****  ***************************************************************************/
 383:Generated_Source\PSoC5/ErikaOS_ee_oo_internal.inc **** 
ARM GAS  C:\Users\agila\AppData\Local\Temp\cck4bOkV.s 			page 17


 384:Generated_Source\PSoC5/ErikaOS_ee_oo_internal.inc **** /*
 385:Generated_Source\PSoC5/ErikaOS_ee_oo_internal.inc ****     Call Hooks utilities
 386:Generated_Source\PSoC5/ErikaOS_ee_oo_internal.inc ****  */
 387:Generated_Source\PSoC5/ErikaOS_ee_oo_internal.inc **** 
 388:Generated_Source\PSoC5/ErikaOS_ee_oo_internal.inc **** #ifdef __OO_HAS_PRETASKHOOK__
 389:Generated_Source\PSoC5/ErikaOS_ee_oo_internal.inc **** __INLINE__ void  EE_oo_call_PreTaskHook(void)
 390:Generated_Source\PSoC5/ErikaOS_ee_oo_internal.inc **** {
 391:Generated_Source\PSoC5/ErikaOS_ee_oo_internal.inc ****   EE_as_set_execution_context( PreTaskHook_Context );
 392:Generated_Source\PSoC5/ErikaOS_ee_oo_internal.inc ****   /* Set the execution context on TASK */
 393:Generated_Source\PSoC5/ErikaOS_ee_oo_internal.inc ****   EE_as_set_execution_context( TASK_Context );
 394:Generated_Source\PSoC5/ErikaOS_ee_oo_internal.inc **** }
 395:Generated_Source\PSoC5/ErikaOS_ee_oo_internal.inc **** 
 396:Generated_Source\PSoC5/ErikaOS_ee_oo_internal.inc **** #else /* __OO_HAS_PRETASKHOOK__ */
 397:Generated_Source\PSoC5/ErikaOS_ee_oo_internal.inc **** __INLINE__ void  EE_oo_call_PreTaskHook(void)
 398:Generated_Source\PSoC5/ErikaOS_ee_oo_internal.inc **** {
 399:Generated_Source\PSoC5/ErikaOS_ee_oo_internal.inc ****   /* Set the execution context on TASK */
 400:Generated_Source\PSoC5/ErikaOS_ee_oo_internal.inc ****   EE_as_set_execution_context( TASK_Context );
 401:Generated_Source\PSoC5/ErikaOS_ee_oo_internal.inc **** }
 402:Generated_Source\PSoC5/ErikaOS_ee_oo_internal.inc **** #endif /* __OO_HAS_PRETASKHOOK__ */
 403:Generated_Source\PSoC5/ErikaOS_ee_oo_internal.inc **** 
 404:Generated_Source\PSoC5/ErikaOS_ee_oo_internal.inc **** #if defined(__OO_HAS_POSTTASKHOOK__)
 405:Generated_Source\PSoC5/ErikaOS_ee_oo_internal.inc **** __INLINE__ void  EE_oo_call_PostTaskHook(void)
 406:Generated_Source\PSoC5/ErikaOS_ee_oo_internal.inc **** {
 407:Generated_Source\PSoC5/ErikaOS_ee_oo_internal.inc ****   EE_as_set_execution_context( PostTaskHook_Context );
 408:Generated_Source\PSoC5/ErikaOS_ee_oo_internal.inc **** }
 409:Generated_Source\PSoC5/ErikaOS_ee_oo_internal.inc **** #else /* __OO_HAS_POSTTASKHOOK__ */
 410:Generated_Source\PSoC5/ErikaOS_ee_oo_internal.inc **** __INLINE__ void  EE_oo_call_PostTaskHook(void) {}
 411:Generated_Source\PSoC5/ErikaOS_ee_oo_internal.inc **** #endif /* __OO_HAS_POSTTASKHOOK__ */
 412:Generated_Source\PSoC5/ErikaOS_ee_oo_internal.inc **** 
 413:Generated_Source\PSoC5/ErikaOS_ee_oo_internal.inc **** 
 414:Generated_Source\PSoC5/ErikaOS_ee_oo_internal.inc **** /* StartOS Flag defined inside ee_startos.c to check that the system has correctly started */
 415:Generated_Source\PSoC5/ErikaOS_ee_oo_internal.inc **** extern EE_UREG volatile EE_oo_started;
 416:Generated_Source\PSoC5/ErikaOS_ee_oo_internal.inc **** 
 417:Generated_Source\PSoC5/ErikaOS_ee_oo_internal.inc **** 
 418:Generated_Source\PSoC5/ErikaOS_ee_oo_internal.inc **** /* Used to check if we are in disable interrupt error. It return
 419:Generated_Source\PSoC5/ErikaOS_ee_oo_internal.inc ****    'signed register type' because usually it is native integer type. */
 420:Generated_Source\PSoC5/ErikaOS_ee_oo_internal.inc **** __INLINE__ EE_TYPEBOOL  EE_oo_check_disableint_error(void)
 421:Generated_Source\PSoC5/ErikaOS_ee_oo_internal.inc **** {
 422:Generated_Source\PSoC5/ErikaOS_ee_oo_internal.inc ****   return ( EE_oo_IRQ_disable_count != 0U );
 423:Generated_Source\PSoC5/ErikaOS_ee_oo_internal.inc **** }
 424:Generated_Source\PSoC5/ErikaOS_ee_oo_internal.inc **** 
 425:Generated_Source\PSoC5/ErikaOS_ee_oo_internal.inc **** #if (defined(__OO_BCC2__)) || (defined(__OO_ECC2__))
 426:Generated_Source\PSoC5/ErikaOS_ee_oo_internal.inc **** /* A lookup table to speedup ready queue handling */
 427:Generated_Source\PSoC5/ErikaOS_ee_oo_internal.inc **** extern const EE_INT8 EE_rq_lookup[256];
 428:Generated_Source\PSoC5/ErikaOS_ee_oo_internal.inc **** /* Lookup functions */
 429:Generated_Source\PSoC5/ErikaOS_ee_oo_internal.inc **** #if defined(__OO_ECC2__)
 430:Generated_Source\PSoC5/ErikaOS_ee_oo_internal.inc **** __INLINE__ EE_INT8  EE_rq_get_first_not_empty_queue( void )
 431:Generated_Source\PSoC5/ErikaOS_ee_oo_internal.inc **** {
 432:Generated_Source\PSoC5/ErikaOS_ee_oo_internal.inc ****   /* Lookup at bits 15-9 */
 433:Generated_Source\PSoC5/ErikaOS_ee_oo_internal.inc ****   EE_INT8 x = EE_rq_lookup[(EE_rq_bitmask & 0xFF00U) >> 8];
 434:Generated_Source\PSoC5/ErikaOS_ee_oo_internal.inc ****   if (x == (EE_INT8)-1) {
 435:Generated_Source\PSoC5/ErikaOS_ee_oo_internal.inc ****     x = EE_rq_lookup[EE_rq_bitmask];
 436:Generated_Source\PSoC5/ErikaOS_ee_oo_internal.inc ****   } else {
 437:Generated_Source\PSoC5/ErikaOS_ee_oo_internal.inc ****     x += (EE_INT8)8;
 438:Generated_Source\PSoC5/ErikaOS_ee_oo_internal.inc ****   }
 439:Generated_Source\PSoC5/ErikaOS_ee_oo_internal.inc ****   return x;
 440:Generated_Source\PSoC5/ErikaOS_ee_oo_internal.inc **** }
ARM GAS  C:\Users\agila\AppData\Local\Temp\cck4bOkV.s 			page 18


 441:Generated_Source\PSoC5/ErikaOS_ee_oo_internal.inc **** #else /* __OO_ECC2__ */
 442:Generated_Source\PSoC5/ErikaOS_ee_oo_internal.inc **** __INLINE__ EE_INT8  EE_rq_get_first_not_empty_queue( void )
 443:Generated_Source\PSoC5/ErikaOS_ee_oo_internal.inc **** {
 444:Generated_Source\PSoC5/ErikaOS_ee_oo_internal.inc ****   return EE_rq_lookup[EE_rq_bitmask];
 445:Generated_Source\PSoC5/ErikaOS_ee_oo_internal.inc **** }
 446:Generated_Source\PSoC5/ErikaOS_ee_oo_internal.inc **** #endif /* __OO_ECC2__ */
 447:Generated_Source\PSoC5/ErikaOS_ee_oo_internal.inc **** #endif /* __OO_BCC2__ || __OO_ECC2__ */
 448:Generated_Source\PSoC5/ErikaOS_ee_oo_internal.inc **** 
 449:Generated_Source\PSoC5/ErikaOS_ee_oo_internal.inc **** /* Internal Queue management functions */
 450:Generated_Source\PSoC5/ErikaOS_ee_oo_internal.inc **** 
 451:Generated_Source\PSoC5/ErikaOS_ee_oo_internal.inc **** /* return the first ready task without extracting it */
 452:Generated_Source\PSoC5/ErikaOS_ee_oo_internal.inc **** #ifndef __PRIVATE_RQ_QUERYFIRST__
 453:Generated_Source\PSoC5/ErikaOS_ee_oo_internal.inc **** #if (defined(__OO_BCC1__)) || (defined(__OO_ECC1__))
 454:Generated_Source\PSoC5/ErikaOS_ee_oo_internal.inc **** __INLINE__ EE_TID  EE_rq_queryfirst(void)
 455:Generated_Source\PSoC5/ErikaOS_ee_oo_internal.inc **** { return EE_rq_first; }
 456:Generated_Source\PSoC5/ErikaOS_ee_oo_internal.inc **** #endif
 457:Generated_Source\PSoC5/ErikaOS_ee_oo_internal.inc **** 
 458:Generated_Source\PSoC5/ErikaOS_ee_oo_internal.inc **** #if (defined(__OO_BCC2__)) || (defined(__OO_ECC2__))
 459:Generated_Source\PSoC5/ErikaOS_ee_oo_internal.inc **** EE_TID EE_rq_queryfirst(void);
 460:Generated_Source\PSoC5/ErikaOS_ee_oo_internal.inc **** #endif
 461:Generated_Source\PSoC5/ErikaOS_ee_oo_internal.inc **** #endif
 462:Generated_Source\PSoC5/ErikaOS_ee_oo_internal.inc **** 
 463:Generated_Source\PSoC5/ErikaOS_ee_oo_internal.inc **** /* __INLINE__ EE_TID  EE_stk_queryfirst(void) in intfunc.h */
 464:Generated_Source\PSoC5/ErikaOS_ee_oo_internal.inc **** 
 465:Generated_Source\PSoC5/ErikaOS_ee_oo_internal.inc **** /* Extract the RUNNING task from the stack, and return the new head */
 466:Generated_Source\PSoC5/ErikaOS_ee_oo_internal.inc **** #ifndef __PRIVATE_STK_GETFIRST__
 467:Generated_Source\PSoC5/ErikaOS_ee_oo_internal.inc **** __INLINE__ EE_TID  EE_stk_getfirst(void)
 468:Generated_Source\PSoC5/ErikaOS_ee_oo_internal.inc **** {
 469:Generated_Source\PSoC5/ErikaOS_ee_oo_internal.inc ****   return (EE_stkfirst = EE_th_next[EE_stkfirst]);
 470:Generated_Source\PSoC5/ErikaOS_ee_oo_internal.inc **** }
 471:Generated_Source\PSoC5/ErikaOS_ee_oo_internal.inc **** #endif /* __PRIVATE_STK_GETFIRST__ */
 472:Generated_Source\PSoC5/ErikaOS_ee_oo_internal.inc **** 
 473:Generated_Source\PSoC5/ErikaOS_ee_oo_internal.inc **** /* insert a task into the stack data structures */
 474:Generated_Source\PSoC5/ErikaOS_ee_oo_internal.inc **** #ifndef __PRIVATE_STK_INSERTFIRST__
 475:Generated_Source\PSoC5/ErikaOS_ee_oo_internal.inc **** __INLINE__ void  EE_stk_insertfirst(EE_TID t)
 476:Generated_Source\PSoC5/ErikaOS_ee_oo_internal.inc **** {
 477:Generated_Source\PSoC5/ErikaOS_ee_oo_internal.inc ****     EE_th_next[t] = EE_stkfirst;
 478:Generated_Source\PSoC5/ErikaOS_ee_oo_internal.inc ****     EE_stkfirst = t;
 479:Generated_Source\PSoC5/ErikaOS_ee_oo_internal.inc **** }
 480:Generated_Source\PSoC5/ErikaOS_ee_oo_internal.inc **** #endif
 481:Generated_Source\PSoC5/ErikaOS_ee_oo_internal.inc **** 
 482:Generated_Source\PSoC5/ErikaOS_ee_oo_internal.inc **** /* insert a task into the ready queue */
 483:Generated_Source\PSoC5/ErikaOS_ee_oo_internal.inc **** #ifndef __PRIVATE_RQ_INSERT__
 484:Generated_Source\PSoC5/ErikaOS_ee_oo_internal.inc **** void EE_rq_insert(EE_TID t);
 485:Generated_Source\PSoC5/ErikaOS_ee_oo_internal.inc **** #endif
 486:Generated_Source\PSoC5/ErikaOS_ee_oo_internal.inc **** 
 487:Generated_Source\PSoC5/ErikaOS_ee_oo_internal.inc **** /* put the first ready task into the stack */
 488:Generated_Source\PSoC5/ErikaOS_ee_oo_internal.inc **** #ifndef __PRIVATE_RQ2STK_EXCHANGE__
 489:Generated_Source\PSoC5/ErikaOS_ee_oo_internal.inc **** EE_TID EE_rq2stk_exchange(void);
 490:Generated_Source\PSoC5/ErikaOS_ee_oo_internal.inc **** #endif
 491:Generated_Source\PSoC5/ErikaOS_ee_oo_internal.inc **** 
 492:Generated_Source\PSoC5/ErikaOS_ee_oo_internal.inc **** #ifndef __OO_NO_RESOURCES__
 493:Generated_Source\PSoC5/ErikaOS_ee_oo_internal.inc **** /*
 494:Generated_Source\PSoC5/ErikaOS_ee_oo_internal.inc ****     Method to release all resources locked by a Thread,
 495:Generated_Source\PSoC5/ErikaOS_ee_oo_internal.inc ****     used to fulfill AS requirement OS070
 496:Generated_Source\PSoC5/ErikaOS_ee_oo_internal.inc ****  */
 497:Generated_Source\PSoC5/ErikaOS_ee_oo_internal.inc **** #if ((!defined(__OO_EXTENDED_STATUS__)) && \
ARM GAS  C:\Users\agila\AppData\Local\Temp\cck4bOkV.s 			page 19


 498:Generated_Source\PSoC5/ErikaOS_ee_oo_internal.inc ****     (!defined(__PRIVATE_RELEASEALLRESOURCE__))) && \
 499:Generated_Source\PSoC5/ErikaOS_ee_oo_internal.inc ****     (!defined(__OO_ISR2_RESOURCES__))
 500:Generated_Source\PSoC5/ErikaOS_ee_oo_internal.inc **** __INLINE__ void  EE_oo_release_all_resources(EE_TID tid)
 501:Generated_Source\PSoC5/ErikaOS_ee_oo_internal.inc **** {
 502:Generated_Source\PSoC5/ErikaOS_ee_oo_internal.inc ****   /* release the internal resource. a EE_TYPEPRIO is a bit mask with only one
 503:Generated_Source\PSoC5/ErikaOS_ee_oo_internal.inc ****      bit set to one.
 504:Generated_Source\PSoC5/ErikaOS_ee_oo_internal.inc ****      If i subtract one to this I obtain a bit mask with all
 505:Generated_Source\PSoC5/ErikaOS_ee_oo_internal.inc ****      ones before the starting one and all zeros after 
 506:Generated_Source\PSoC5/ErikaOS_ee_oo_internal.inc ****      (exactly what I want to release resources!)
 507:Generated_Source\PSoC5/ErikaOS_ee_oo_internal.inc ****   */
 508:Generated_Source\PSoC5/ErikaOS_ee_oo_internal.inc ****   EE_sys_ceiling &= (EE_th_dispatch_prio[tid] - 1U);
 509:Generated_Source\PSoC5/ErikaOS_ee_oo_internal.inc **** }
 510:Generated_Source\PSoC5/ErikaOS_ee_oo_internal.inc **** #else
 511:Generated_Source\PSoC5/ErikaOS_ee_oo_internal.inc **** EE_UREG EE_oo_release_all_resources(EE_TID tid);
 512:Generated_Source\PSoC5/ErikaOS_ee_oo_internal.inc **** #endif /* !__OO_EXTENDED_STATUS__ && !__OO_ISR2_RESOURCES__ */
 513:Generated_Source\PSoC5/ErikaOS_ee_oo_internal.inc **** #else /* __OO_NO_RESOURCES__ */
 514:Generated_Source\PSoC5/ErikaOS_ee_oo_internal.inc **** #define EE_oo_release_all_resources(tid)    ((void)0)
 515:Generated_Source\PSoC5/ErikaOS_ee_oo_internal.inc **** #endif /* __OO_NO_RESOURCES__ */
 516:Generated_Source\PSoC5/ErikaOS_ee_oo_internal.inc **** 
 517:Generated_Source\PSoC5/ErikaOS_ee_oo_internal.inc **** #ifndef __PRIVATE_THREANTERMINATED__
 518:Generated_Source\PSoC5/ErikaOS_ee_oo_internal.inc **** /* this the function that will be called if a Task doesn't end calling
 519:Generated_Source\PSoC5/ErikaOS_ee_oo_internal.inc ****    TerminateTask */
 520:Generated_Source\PSoC5/ErikaOS_ee_oo_internal.inc **** 
 521:Generated_Source\PSoC5/ErikaOS_ee_oo_internal.inc **** extern void EE_thread_not_terminated( void );
 522:Generated_Source\PSoC5/ErikaOS_ee_oo_internal.inc **** #endif /* __PRIVATE_THREANTERMINATED__ */
 523:Generated_Source\PSoC5/ErikaOS_ee_oo_internal.inc **** 
 524:Generated_Source\PSoC5/ErikaOS_ee_oo_internal.inc **** /* This call terminates a thread instance. It must be called as the
 525:Generated_Source\PSoC5/ErikaOS_ee_oo_internal.inc ****    LAST function call BEFORE the `}' that ends a thread. If the
 526:Generated_Source\PSoC5/ErikaOS_ee_oo_internal.inc ****    primitive is not inserted at the end of */
 527:Generated_Source\PSoC5/ErikaOS_ee_oo_internal.inc **** #ifndef __PRIVATE_THREAD_END_INSTANCE__
 528:Generated_Source\PSoC5/ErikaOS_ee_oo_internal.inc **** void EE_thread_end_instance(void);
 529:Generated_Source\PSoC5/ErikaOS_ee_oo_internal.inc **** #endif
 530:Generated_Source\PSoC5/ErikaOS_ee_oo_internal.inc **** 
 531:Generated_Source\PSoC5/ErikaOS_ee_oo_internal.inc **** #if (defined(__OO_ISR2_RESOURCES__)) || (defined(EE_AS_USER_SPINLOCKS__))
 532:Generated_Source\PSoC5/ErikaOS_ee_oo_internal.inc **** /* Index used to give ISR2 Temporary TID value and to access at
 533:Generated_Source\PSoC5/ErikaOS_ee_oo_internal.inc ****    EE_isr2_nesting_level array */
 534:Generated_Source\PSoC5/ErikaOS_ee_oo_internal.inc **** extern EE_UREG EE_isr2_index;
 535:Generated_Source\PSoC5/ErikaOS_ee_oo_internal.inc **** 
 536:Generated_Source\PSoC5/ErikaOS_ee_oo_internal.inc **** /* Assign a fake TID to an ISR2 to eventually handle resources clean-up */
 537:Generated_Source\PSoC5/ErikaOS_ee_oo_internal.inc **** EE_TID  EE_oo_assign_TID_to_ISR2(void);
 538:Generated_Source\PSoC5/ErikaOS_ee_oo_internal.inc **** 
 539:Generated_Source\PSoC5/ErikaOS_ee_oo_internal.inc **** /* Get the last assigned fake ISR2 TID */
 540:Generated_Source\PSoC5/ErikaOS_ee_oo_internal.inc **** __INLINE__ EE_TID  EE_oo_get_ISR2_TID(void) {
 541:Generated_Source\PSoC5/ErikaOS_ee_oo_internal.inc ****   return (EE_isr2_index != EE_UREG_MINUS1)?
  80              		.loc 2 541 0
  81 0012 4B4B     		ldr	r3, .L24+8
  82 0014 1B68     		ldr	r3, [r3]
 542:Generated_Source\PSoC5/ErikaOS_ee_oo_internal.inc ****     (EE_MAX_TASK + (EE_TID)EE_isr2_index): EE_NIL;
  83              		.loc 2 542 0
  84 0016 B3F1FF3F 		cmp	r3, #-1
  85 001a 01D0     		beq	.L10
  86 001c 0533     		adds	r3, r3, #5
  87 001e 01E0     		b	.L2
  88              	.L10:
  89 0020 4FF0FF33 		mov	r3, #-1
  90              	.L2:
  91              	.LVL4:
ARM GAS  C:\Users\agila\AppData\Local\Temp\cck4bOkV.s 			page 20


  92              	.LBE99:
  93              	.LBE98:
 111:Generated_Source\PSoC5/ErikaOS_ee_ulockres.c ****     current = EE_oo_get_ISR2_TID();
 112:Generated_Source\PSoC5/ErikaOS_ee_ulockres.c ****   }
 113:Generated_Source\PSoC5/ErikaOS_ee_ulockres.c **** #endif /* __OO_ISR2_RESOURCES__ */
 114:Generated_Source\PSoC5/ErikaOS_ee_ulockres.c **** 
 115:Generated_Source\PSoC5/ErikaOS_ee_ulockres.c **** #ifdef EE_SERVICE_PROTECTION__
 116:Generated_Source\PSoC5/ErikaOS_ee_ulockres.c ****   /*  [OS093]: If interrupts are disabled/suspended by a Task/OsIsr and the
 117:Generated_Source\PSoC5/ErikaOS_ee_ulockres.c ****        Task/OsIsr calls any OS service (excluding the interrupt services)
 118:Generated_Source\PSoC5/ErikaOS_ee_ulockres.c ****        then the Operating System shall ignore the service AND shall return
 119:Generated_Source\PSoC5/ErikaOS_ee_ulockres.c ****        E_OS_DISABLEDINT if the service returns a StatusType value. */
 120:Generated_Source\PSoC5/ErikaOS_ee_ulockres.c ****   /*  [OS088]: If an OS-Application makes a service call from the wrong context
 121:Generated_Source\PSoC5/ErikaOS_ee_ulockres.c ****        AND is currently not inside a Category 1 ISR the Operating System module
 122:Generated_Source\PSoC5/ErikaOS_ee_ulockres.c ****        shall not perform the requested action (the service call shall have no
 123:Generated_Source\PSoC5/ErikaOS_ee_ulockres.c ****        effect), and return E_OS_CALLEVEL (see [12], section 13.1) or the
 124:Generated_Source\PSoC5/ErikaOS_ee_ulockres.c ****        "invalid value" of the service. (BSW11009, BSW11013) */
 125:Generated_Source\PSoC5/ErikaOS_ee_ulockres.c ****   /* ReleaseResource is callable by Task and ISR2 */
 126:Generated_Source\PSoC5/ErikaOS_ee_ulockres.c ****   if ( EE_as_execution_context > ISR2_Context ) {
 127:Generated_Source\PSoC5/ErikaOS_ee_ulockres.c ****     ev = E_OS_CALLEVEL;
 128:Generated_Source\PSoC5/ErikaOS_ee_ulockres.c ****   } else if ( EE_oo_check_disableint_error() ) {
 129:Generated_Source\PSoC5/ErikaOS_ee_ulockres.c ****     ev = E_OS_DISABLEDINT;
 130:Generated_Source\PSoC5/ErikaOS_ee_ulockres.c ****   } else
 131:Generated_Source\PSoC5/ErikaOS_ee_ulockres.c **** #endif /* EE_SERVICE_PROTECTION__ */
 132:Generated_Source\PSoC5/ErikaOS_ee_ulockres.c **** 
 133:Generated_Source\PSoC5/ErikaOS_ee_ulockres.c **** #if (defined(EE_AS_OSAPPLICATIONS__)) && (defined(EE_SERVICE_PROTECTION__))
 134:Generated_Source\PSoC5/ErikaOS_ee_ulockres.c ****   /* no comparison for ResID < 0, the type is unsigned! */
 135:Generated_Source\PSoC5/ErikaOS_ee_ulockres.c ****   if ( ResID >= EE_MAX_RESOURCE ) {
 136:Generated_Source\PSoC5/ErikaOS_ee_ulockres.c ****     ev = E_OS_ID;
 137:Generated_Source\PSoC5/ErikaOS_ee_ulockres.c ****   } else if ( EE_RESOURCE_ACCESS_ERR(ResID, EE_as_active_app) ) {
 138:Generated_Source\PSoC5/ErikaOS_ee_ulockres.c ****     ev = E_OS_ACCESS;
 139:Generated_Source\PSoC5/ErikaOS_ee_ulockres.c ****   } else
 140:Generated_Source\PSoC5/ErikaOS_ee_ulockres.c **** #elif defined(__OO_EXTENDED_STATUS__)
 141:Generated_Source\PSoC5/ErikaOS_ee_ulockres.c ****   /* no comparison for ResID < 0, the type is unsigned! */
 142:Generated_Source\PSoC5/ErikaOS_ee_ulockres.c ****   if ( ResID >= EE_MAX_RESOURCE ) {
  94              		.loc 1 142 0
  95 0024 0128     		cmp	r0, #1
  96 0026 72D8     		bhi	.L11
 143:Generated_Source\PSoC5/ErikaOS_ee_ulockres.c ****     ev = E_OS_ID;
 144:Generated_Source\PSoC5/ErikaOS_ee_ulockres.c ****   } else
 145:Generated_Source\PSoC5/ErikaOS_ee_ulockres.c **** #endif /* EE_AS_OSAPPLICATIONS__ || E_SERVICE_PROTECTION__ ||
 146:Generated_Source\PSoC5/ErikaOS_ee_ulockres.c **** __OO_EXTENDED_STATUS__ */
 147:Generated_Source\PSoC5/ErikaOS_ee_ulockres.c **** 
 148:Generated_Source\PSoC5/ErikaOS_ee_ulockres.c **** #ifdef __OO_EXTENDED_STATUS__
 149:Generated_Source\PSoC5/ErikaOS_ee_ulockres.c ****   if ( (EE_resource_locked[ResID] == EE_FALSE) ||
  97              		.loc 1 149 0
  98 0028 4649     		ldr	r1, .L24+12
  99 002a 51F82010 		ldr	r1, [r1, r0, lsl #2]
 100 002e 0029     		cmp	r1, #0
 101 0030 6FD0     		beq	.L12
 150:Generated_Source\PSoC5/ErikaOS_ee_ulockres.c ****         (EE_th_resource_last[current] != ResID) ) {
 102              		.loc 1 150 0 discriminator 1
 103 0032 4549     		ldr	r1, .L24+16
 104 0034 51F82310 		ldr	r1, [r1, r3, lsl #2]
 149:Generated_Source\PSoC5/ErikaOS_ee_ulockres.c ****         (EE_th_resource_last[current] != ResID) ) {
 105              		.loc 1 149 0 discriminator 1
 106 0038 8842     		cmp	r0, r1
 107 003a 6CD1     		bne	.L13
ARM GAS  C:\Users\agila\AppData\Local\Temp\cck4bOkV.s 			page 21


 151:Generated_Source\PSoC5/ErikaOS_ee_ulockres.c ****     ev = E_OS_NOFUNC;
 152:Generated_Source\PSoC5/ErikaOS_ee_ulockres.c ****   } else if ( (inside_task != EE_FALSE) && ((current == EE_NIL) ||
 108              		.loc 1 152 0
 109 003c 52B9     		cbnz	r2, .L5
 110              		.loc 1 152 0 is_stmt 0 discriminator 1
 111 003e B3F1FF3F 		cmp	r3, #-1
 112 0042 6AD0     		beq	.L14
 153:Generated_Source\PSoC5/ErikaOS_ee_ulockres.c ****       (EE_th_ready_prio[current] > EE_resource_ceiling[ResID])) ) {
 113              		.loc 1 153 0 is_stmt 1 discriminator 2
 114 0044 414C     		ldr	r4, .L24+20
 115 0046 54F82360 		ldr	r6, [r4, r3, lsl #2]
 116 004a 414C     		ldr	r4, .L24+24
 117 004c 54F82040 		ldr	r4, [r4, r0, lsl #2]
 152:Generated_Source\PSoC5/ErikaOS_ee_ulockres.c ****       (EE_th_ready_prio[current] > EE_resource_ceiling[ResID])) ) {
 118              		.loc 1 152 0 discriminator 2
 119 0050 A642     		cmp	r6, r4
 120 0052 64D8     		bhi	.L15
 121              	.L5:
 154:Generated_Source\PSoC5/ErikaOS_ee_ulockres.c ****     ev = E_OS_ACCESS;
 155:Generated_Source\PSoC5/ErikaOS_ee_ulockres.c ****   } else
 156:Generated_Source\PSoC5/ErikaOS_ee_ulockres.c **** #ifdef __OO_ISR2_RESOURCES__
 157:Generated_Source\PSoC5/ErikaOS_ee_ulockres.c ****   /* Check if interrupt controller priority is greater than priority
 158:Generated_Source\PSoC5/ErikaOS_ee_ulockres.c ****      of resource to be realeased */
 159:Generated_Source\PSoC5/ErikaOS_ee_ulockres.c ****   if ( (inside_task == EE_FALSE) &&
 122              		.loc 1 159 0
 123 0054 92B1     		cbz	r2, .L6
 160:Generated_Source\PSoC5/ErikaOS_ee_ulockres.c ****     (EE_hal_check_int_prio_if_higher(EE_resource_isr2_priority[ResID]) !=
 124              		.loc 1 160 0 discriminator 1
 125 0056 3F4C     		ldr	r4, .L24+28
 126 0058 54F82060 		ldr	r6, [r4, r0, lsl #2]
 127              	.LVL5:
 128              	.LBB100:
 129              	.LBB101:
 130              	.LBB102:
 131              	.LBB103:
 262:Generated_Source\PSoC5/ErikaOS_cortex_mx_ee_cpu.inc **** #endif	/* !__KEIL__ */
 263:Generated_Source\PSoC5/ErikaOS_cortex_mx_ee_cpu.inc **** #endif	/* !__CCS__ */
 264:Generated_Source\PSoC5/ErikaOS_cortex_mx_ee_cpu.inc **** #endif	/* !__IAR__ */
 265:Generated_Source\PSoC5/ErikaOS_cortex_mx_ee_cpu.inc **** #ifdef __CCS__
 266:Generated_Source\PSoC5/ErikaOS_cortex_mx_ee_cpu.inc **** 	return 0;
 267:Generated_Source\PSoC5/ErikaOS_cortex_mx_ee_cpu.inc **** #else
 268:Generated_Source\PSoC5/ErikaOS_cortex_mx_ee_cpu.inc **** 	return istat;
 269:Generated_Source\PSoC5/ErikaOS_cortex_mx_ee_cpu.inc **** #endif
 270:Generated_Source\PSoC5/ErikaOS_cortex_mx_ee_cpu.inc **** }
 271:Generated_Source\PSoC5/ErikaOS_cortex_mx_ee_cpu.inc **** 
 272:Generated_Source\PSoC5/ErikaOS_cortex_mx_ee_cpu.inc **** /**
 273:Generated_Source\PSoC5/ErikaOS_cortex_mx_ee_cpu.inc ****  * Return true (not 0) if IRQs are enabled, 0 (false) if IRQ are disabled.
 274:Generated_Source\PSoC5/ErikaOS_cortex_mx_ee_cpu.inc ****  */
 275:Generated_Source\PSoC5/ErikaOS_cortex_mx_ee_cpu.inc **** __INLINE__ EE_UINT32  EE_cortex_mx_get_IRQ_enabled(void)
 276:Generated_Source\PSoC5/ErikaOS_cortex_mx_ee_cpu.inc **** {
 277:Generated_Source\PSoC5/ErikaOS_cortex_mx_ee_cpu.inc **** #ifndef __CCS__
 278:Generated_Source\PSoC5/ErikaOS_cortex_mx_ee_cpu.inc **** 	EE_UREG ie;
 279:Generated_Source\PSoC5/ErikaOS_cortex_mx_ee_cpu.inc **** #endif
 280:Generated_Source\PSoC5/ErikaOS_cortex_mx_ee_cpu.inc **** #ifdef __IAR__
 281:Generated_Source\PSoC5/ErikaOS_cortex_mx_ee_cpu.inc **** 	ie = __get_PRIMASK();
 282:Generated_Source\PSoC5/ErikaOS_cortex_mx_ee_cpu.inc **** #else	/* __IAR__ */
 283:Generated_Source\PSoC5/ErikaOS_cortex_mx_ee_cpu.inc **** #ifdef __CCS__
ARM GAS  C:\Users\agila\AppData\Local\Temp\cck4bOkV.s 			page 22


 284:Generated_Source\PSoC5/ErikaOS_cortex_mx_ee_cpu.inc **** 	__ASM ("    MRS     r0, PRIMASK\n"
 285:Generated_Source\PSoC5/ErikaOS_cortex_mx_ee_cpu.inc **** 	       "    EOR     r0, #1\n"
 286:Generated_Source\PSoC5/ErikaOS_cortex_mx_ee_cpu.inc **** 	       "    bx      lr\n");
 287:Generated_Source\PSoC5/ErikaOS_cortex_mx_ee_cpu.inc **** #else	/* __CCS__ */
 288:Generated_Source\PSoC5/ErikaOS_cortex_mx_ee_cpu.inc **** #ifdef __KEIL__
 289:Generated_Source\PSoC5/ErikaOS_cortex_mx_ee_cpu.inc **** 	register EE_FREG PRIMASK __ASM("primask");
 290:Generated_Source\PSoC5/ErikaOS_cortex_mx_ee_cpu.inc **** 	ie = PRIMASK;
 291:Generated_Source\PSoC5/ErikaOS_cortex_mx_ee_cpu.inc **** #else	/* __KEIL__ */
 292:Generated_Source\PSoC5/ErikaOS_cortex_mx_ee_cpu.inc **** 	__ASM volatile ("MRS %0, primask" : "=r" (ie) );
 293:Generated_Source\PSoC5/ErikaOS_cortex_mx_ee_cpu.inc **** #endif	/* !__KEIL__ */
 294:Generated_Source\PSoC5/ErikaOS_cortex_mx_ee_cpu.inc **** #endif	/* !__CCS__ */
 295:Generated_Source\PSoC5/ErikaOS_cortex_mx_ee_cpu.inc **** #endif	/* !__IAR__ */
 296:Generated_Source\PSoC5/ErikaOS_cortex_mx_ee_cpu.inc **** #ifdef __CCS__
 297:Generated_Source\PSoC5/ErikaOS_cortex_mx_ee_cpu.inc **** 	return 0;
 298:Generated_Source\PSoC5/ErikaOS_cortex_mx_ee_cpu.inc **** #else
 299:Generated_Source\PSoC5/ErikaOS_cortex_mx_ee_cpu.inc **** 	return EE_cortex_mx_are_IRQs_enabled(ie);
 300:Generated_Source\PSoC5/ErikaOS_cortex_mx_ee_cpu.inc **** #endif
 301:Generated_Source\PSoC5/ErikaOS_cortex_mx_ee_cpu.inc **** }
 302:Generated_Source\PSoC5/ErikaOS_cortex_mx_ee_cpu.inc **** 
 303:Generated_Source\PSoC5/ErikaOS_cortex_mx_ee_cpu.inc **** __INLINE__ EE_TYPEISR2PRIO  EE_cortex_mx_get_int_prio(void)
 304:Generated_Source\PSoC5/ErikaOS_cortex_mx_ee_cpu.inc **** {
 305:Generated_Source\PSoC5/ErikaOS_cortex_mx_ee_cpu.inc **** #ifdef __CORTEX_M4__
 306:Generated_Source\PSoC5/ErikaOS_cortex_mx_ee_cpu.inc **** 
 307:Generated_Source\PSoC5/ErikaOS_cortex_mx_ee_cpu.inc **** #ifndef __CCS__
 308:Generated_Source\PSoC5/ErikaOS_cortex_mx_ee_cpu.inc **** 	register EE_UREG prio;
 309:Generated_Source\PSoC5/ErikaOS_cortex_mx_ee_cpu.inc **** #ifdef	__KEIL__
 310:Generated_Source\PSoC5/ErikaOS_cortex_mx_ee_cpu.inc **** 	register EE_FREG BASEPRI __ASM("basepri");
 311:Generated_Source\PSoC5/ErikaOS_cortex_mx_ee_cpu.inc **** #endif
 312:Generated_Source\PSoC5/ErikaOS_cortex_mx_ee_cpu.inc **** 
 313:Generated_Source\PSoC5/ErikaOS_cortex_mx_ee_cpu.inc **** #endif
 314:Generated_Source\PSoC5/ErikaOS_cortex_mx_ee_cpu.inc **** 
 315:Generated_Source\PSoC5/ErikaOS_cortex_mx_ee_cpu.inc **** #ifdef __CCS__
 316:Generated_Source\PSoC5/ErikaOS_cortex_mx_ee_cpu.inc **** 	/* NVIC_INT_PRI_S = 5 */
 317:Generated_Source\PSoC5/ErikaOS_cortex_mx_ee_cpu.inc **** 	__ASM ("    MRS     R0, BASEPRI\n"
 318:Generated_Source\PSoC5/ErikaOS_cortex_mx_ee_cpu.inc **** 	       "    ASR     R0, #5\n"
 319:Generated_Source\PSoC5/ErikaOS_cortex_mx_ee_cpu.inc **** 	       "    BLX     LR\n");
 320:Generated_Source\PSoC5/ErikaOS_cortex_mx_ee_cpu.inc **** #else	/* __CCS__ */
 321:Generated_Source\PSoC5/ErikaOS_cortex_mx_ee_cpu.inc **** #ifdef __KEIL__
 322:Generated_Source\PSoC5/ErikaOS_cortex_mx_ee_cpu.inc **** 	prio = BASEPRI;
 323:Generated_Source\PSoC5/ErikaOS_cortex_mx_ee_cpu.inc **** #else	/* __KEIL__ */
 324:Generated_Source\PSoC5/ErikaOS_cortex_mx_ee_cpu.inc **** #ifdef __GNU__
 325:Generated_Source\PSoC5/ErikaOS_cortex_mx_ee_cpu.inc **** 	__ASM volatile("MRS %0, BASEPRI" : "=r" (prio) :: );
 132              		.loc 4 325 0 discriminator 1
 133              		.syntax unified
 134              	@ 325 "Generated_Source\PSoC5\ErikaOS_cortex_mx_ee_cpu.inc" 1
 135 005c EFF31184 		MRS r4, BASEPRI
 136              	@ 0 "" 2
 137              		.thumb
 138              		.syntax unified
 139              	.LBE103:
 140              	.LBE102:
 141              		.file 5 "Generated_Source\\PSoC5\\ErikaOS_cortex_mx_ee_internal.inc"
   1:Generated_Source\PSoC5/ErikaOS_cortex_mx_ee_internal.inc **** /* ###*B*###
   2:Generated_Source\PSoC5/ErikaOS_cortex_mx_ee_internal.inc ****  * ERIKA Enterprise - a tiny RTOS for small microcontrollers
   3:Generated_Source\PSoC5/ErikaOS_cortex_mx_ee_internal.inc ****  *
   4:Generated_Source\PSoC5/ErikaOS_cortex_mx_ee_internal.inc ****  * Copyright (C) 2002-2011  Evidence Srl
   5:Generated_Source\PSoC5/ErikaOS_cortex_mx_ee_internal.inc ****  *
ARM GAS  C:\Users\agila\AppData\Local\Temp\cck4bOkV.s 			page 23


   6:Generated_Source\PSoC5/ErikaOS_cortex_mx_ee_internal.inc ****  * This file is part of ERIKA Enterprise.
   7:Generated_Source\PSoC5/ErikaOS_cortex_mx_ee_internal.inc ****  *
   8:Generated_Source\PSoC5/ErikaOS_cortex_mx_ee_internal.inc ****  * ERIKA Enterprise is free software; you can redistribute it
   9:Generated_Source\PSoC5/ErikaOS_cortex_mx_ee_internal.inc ****  * and/or modify it under the terms of the GNU General Public License
  10:Generated_Source\PSoC5/ErikaOS_cortex_mx_ee_internal.inc ****  * version 2 as published by the Free Software Foundation, 
  11:Generated_Source\PSoC5/ErikaOS_cortex_mx_ee_internal.inc ****  * (with a special exception described below).
  12:Generated_Source\PSoC5/ErikaOS_cortex_mx_ee_internal.inc ****  *
  13:Generated_Source\PSoC5/ErikaOS_cortex_mx_ee_internal.inc ****  * Linking this code statically or dynamically with other modules is
  14:Generated_Source\PSoC5/ErikaOS_cortex_mx_ee_internal.inc ****  * making a combined work based on this code.  Thus, the terms and
  15:Generated_Source\PSoC5/ErikaOS_cortex_mx_ee_internal.inc ****  * conditions of the GNU General Public License cover the whole
  16:Generated_Source\PSoC5/ErikaOS_cortex_mx_ee_internal.inc ****  * combination.
  17:Generated_Source\PSoC5/ErikaOS_cortex_mx_ee_internal.inc ****  *
  18:Generated_Source\PSoC5/ErikaOS_cortex_mx_ee_internal.inc ****  * As a special exception, the copyright holders of this library give you
  19:Generated_Source\PSoC5/ErikaOS_cortex_mx_ee_internal.inc ****  * permission to link this code with independent modules to produce an
  20:Generated_Source\PSoC5/ErikaOS_cortex_mx_ee_internal.inc ****  * executable, regardless of the license terms of these independent
  21:Generated_Source\PSoC5/ErikaOS_cortex_mx_ee_internal.inc ****  * modules, and to copy and distribute the resulting executable under
  22:Generated_Source\PSoC5/ErikaOS_cortex_mx_ee_internal.inc ****  * terms of your choice, provided that you also meet, for each linked
  23:Generated_Source\PSoC5/ErikaOS_cortex_mx_ee_internal.inc ****  * independent module, the terms and conditions of the license of that
  24:Generated_Source\PSoC5/ErikaOS_cortex_mx_ee_internal.inc ****  * module.  An independent module is a module which is not derived from
  25:Generated_Source\PSoC5/ErikaOS_cortex_mx_ee_internal.inc ****  * or based on this library.  If you modify this code, you may extend
  26:Generated_Source\PSoC5/ErikaOS_cortex_mx_ee_internal.inc ****  * this exception to your version of the code, but you are not
  27:Generated_Source\PSoC5/ErikaOS_cortex_mx_ee_internal.inc ****  * obligated to do so.  If you do not wish to do so, delete this
  28:Generated_Source\PSoC5/ErikaOS_cortex_mx_ee_internal.inc ****  * exception statement from your version.
  29:Generated_Source\PSoC5/ErikaOS_cortex_mx_ee_internal.inc ****  *
  30:Generated_Source\PSoC5/ErikaOS_cortex_mx_ee_internal.inc ****  * ERIKA Enterprise is distributed in the hope that it will be
  31:Generated_Source\PSoC5/ErikaOS_cortex_mx_ee_internal.inc ****  * useful, but WITHOUT ANY WARRANTY; without even the implied warranty
  32:Generated_Source\PSoC5/ErikaOS_cortex_mx_ee_internal.inc ****  * of MERCHANTABILITY or FITNESS FOR A PARTICULAR PURPOSE.  See the
  33:Generated_Source\PSoC5/ErikaOS_cortex_mx_ee_internal.inc ****  * GNU General Public License version 2 for more details.
  34:Generated_Source\PSoC5/ErikaOS_cortex_mx_ee_internal.inc ****  *
  35:Generated_Source\PSoC5/ErikaOS_cortex_mx_ee_internal.inc ****  * You should have received a copy of the GNU General Public License
  36:Generated_Source\PSoC5/ErikaOS_cortex_mx_ee_internal.inc ****  * version 2 along with ERIKA Enterprise; if not, write to the
  37:Generated_Source\PSoC5/ErikaOS_cortex_mx_ee_internal.inc ****  * Free Software Foundation, Inc., 51 Franklin Street, Fifth Floor,
  38:Generated_Source\PSoC5/ErikaOS_cortex_mx_ee_internal.inc ****  * Boston, MA 02110-1301 USA.
  39:Generated_Source\PSoC5/ErikaOS_cortex_mx_ee_internal.inc ****  * ###*E*### */
  40:Generated_Source\PSoC5/ErikaOS_cortex_mx_ee_internal.inc **** 
  41:Generated_Source\PSoC5/ErikaOS_cortex_mx_ee_internal.inc **** /** 
  42:Generated_Source\PSoC5/ErikaOS_cortex_mx_ee_internal.inc **** 	@file	ee_internal.h
  43:Generated_Source\PSoC5/ErikaOS_cortex_mx_ee_internal.inc **** 	@brief	Derived from cpu/pic30/inc/ee_internal.h
  44:Generated_Source\PSoC5/ErikaOS_cortex_mx_ee_internal.inc **** 	@author	Gianluca Franchino
  45:Generated_Source\PSoC5/ErikaOS_cortex_mx_ee_internal.inc **** 	@author	Giuseppe Serano
  46:Generated_Source\PSoC5/ErikaOS_cortex_mx_ee_internal.inc **** 	@date	2012
  47:Generated_Source\PSoC5/ErikaOS_cortex_mx_ee_internal.inc **** */  
  48:Generated_Source\PSoC5/ErikaOS_cortex_mx_ee_internal.inc ****     
  49:Generated_Source\PSoC5/ErikaOS_cortex_mx_ee_internal.inc **** /*
  50:Generated_Source\PSoC5/ErikaOS_cortex_mx_ee_internal.inc ****  * PSoC Port and API Generation
  51:Generated_Source\PSoC5/ErikaOS_cortex_mx_ee_internal.inc ****  * Carlos Fernando Meier Martinez
  52:Generated_Source\PSoC5/ErikaOS_cortex_mx_ee_internal.inc ****  * Hochschule Darmstadt, Germany. 2017.
  53:Generated_Source\PSoC5/ErikaOS_cortex_mx_ee_internal.inc ****  */
  54:Generated_Source\PSoC5/ErikaOS_cortex_mx_ee_internal.inc **** 
  55:Generated_Source\PSoC5/ErikaOS_cortex_mx_ee_internal.inc **** #ifndef __INCLUDE_CORTEX_MX_INTERNAL_H__
  56:Generated_Source\PSoC5/ErikaOS_cortex_mx_ee_internal.inc **** #define __INCLUDE_CORTEX_MX_INTERNAL_H__
  57:Generated_Source\PSoC5/ErikaOS_cortex_mx_ee_internal.inc **** 
  58:Generated_Source\PSoC5/ErikaOS_cortex_mx_ee_internal.inc **** 
  59:Generated_Source\PSoC5/ErikaOS_cortex_mx_ee_internal.inc **** #include "ErikaOS_cortex_mx_ee_cpu.inc"
  60:Generated_Source\PSoC5/ErikaOS_cortex_mx_ee_internal.inc **** 
  61:Generated_Source\PSoC5/ErikaOS_cortex_mx_ee_internal.inc **** 
  62:Generated_Source\PSoC5/ErikaOS_cortex_mx_ee_internal.inc **** /*************************************************************************
ARM GAS  C:\Users\agila\AppData\Local\Temp\cck4bOkV.s 			page 24


  63:Generated_Source\PSoC5/ErikaOS_cortex_mx_ee_internal.inc ****  Functions
  64:Generated_Source\PSoC5/ErikaOS_cortex_mx_ee_internal.inc ****  *************************************************************************/
  65:Generated_Source\PSoC5/ErikaOS_cortex_mx_ee_internal.inc **** 
  66:Generated_Source\PSoC5/ErikaOS_cortex_mx_ee_internal.inc **** /*
  67:Generated_Source\PSoC5/ErikaOS_cortex_mx_ee_internal.inc ****  * Generic Primitives
  68:Generated_Source\PSoC5/ErikaOS_cortex_mx_ee_internal.inc ****  */
  69:Generated_Source\PSoC5/ErikaOS_cortex_mx_ee_internal.inc **** 
  70:Generated_Source\PSoC5/ErikaOS_cortex_mx_ee_internal.inc **** #include "ErikaOS_common_ee_primitives.inc"
  71:Generated_Source\PSoC5/ErikaOS_cortex_mx_ee_internal.inc **** 
  72:Generated_Source\PSoC5/ErikaOS_cortex_mx_ee_internal.inc **** /*************************************************************************
  73:Generated_Source\PSoC5/ErikaOS_cortex_mx_ee_internal.inc ****                             System startup
  74:Generated_Source\PSoC5/ErikaOS_cortex_mx_ee_internal.inc ****  *************************************************************************/
  75:Generated_Source\PSoC5/ErikaOS_cortex_mx_ee_internal.inc **** 
  76:Generated_Source\PSoC5/ErikaOS_cortex_mx_ee_internal.inc **** #define OO_CPU_HAS_STARTOS_ROUTINE
  77:Generated_Source\PSoC5/ErikaOS_cortex_mx_ee_internal.inc **** 
  78:Generated_Source\PSoC5/ErikaOS_cortex_mx_ee_internal.inc **** /* If system is defined I have to initialize it*/
  79:Generated_Source\PSoC5/ErikaOS_cortex_mx_ee_internal.inc **** #if	( defined(ENABLE_SYSTEM_TIMER) && defined(EE_SYSTEM_TIMER_DEVICE) )
  80:Generated_Source\PSoC5/ErikaOS_cortex_mx_ee_internal.inc **** void EE_cortex_mx_initialize_system_timer(void);
  81:Generated_Source\PSoC5/ErikaOS_cortex_mx_ee_internal.inc **** #else /* ENABLE_SYSTEM_TIMER */
  82:Generated_Source\PSoC5/ErikaOS_cortex_mx_ee_internal.inc **** #define EE_cortex_mx_initialize_system_timer() ((void) 0)
  83:Generated_Source\PSoC5/ErikaOS_cortex_mx_ee_internal.inc **** #endif /* ENABLE_SYSTEM_TIMER */
  84:Generated_Source\PSoC5/ErikaOS_cortex_mx_ee_internal.inc **** 
  85:Generated_Source\PSoC5/ErikaOS_cortex_mx_ee_internal.inc **** __INLINE__ EE_TYPEBOOL  EE_cpu_startos(void);
  86:Generated_Source\PSoC5/ErikaOS_cortex_mx_ee_internal.inc **** __INLINE__ EE_TYPEBOOL  EE_cpu_startos(void)
  87:Generated_Source\PSoC5/ErikaOS_cortex_mx_ee_internal.inc **** {
  88:Generated_Source\PSoC5/ErikaOS_cortex_mx_ee_internal.inc ****   EE_system_init();
  89:Generated_Source\PSoC5/ErikaOS_cortex_mx_ee_internal.inc ****   EE_cortex_mx_initialize_system_timer();
  90:Generated_Source\PSoC5/ErikaOS_cortex_mx_ee_internal.inc ****   return 0;
  91:Generated_Source\PSoC5/ErikaOS_cortex_mx_ee_internal.inc **** }
  92:Generated_Source\PSoC5/ErikaOS_cortex_mx_ee_internal.inc **** 
  93:Generated_Source\PSoC5/ErikaOS_cortex_mx_ee_internal.inc **** 
  94:Generated_Source\PSoC5/ErikaOS_cortex_mx_ee_internal.inc **** /** Called as _first_ function of a primitive that can be called in
  95:Generated_Source\PSoC5/ErikaOS_cortex_mx_ee_internal.inc ****    an IRQ and in a task */
  96:Generated_Source\PSoC5/ErikaOS_cortex_mx_ee_internal.inc **** __INLINE__ EE_FREG  EE_hal_begin_nested_primitive(void)
  97:Generated_Source\PSoC5/ErikaOS_cortex_mx_ee_internal.inc **** {
  98:Generated_Source\PSoC5/ErikaOS_cortex_mx_ee_internal.inc ****     return EE_cortex_mx_suspendIRQ();
  99:Generated_Source\PSoC5/ErikaOS_cortex_mx_ee_internal.inc **** }
 100:Generated_Source\PSoC5/ErikaOS_cortex_mx_ee_internal.inc **** 
 101:Generated_Source\PSoC5/ErikaOS_cortex_mx_ee_internal.inc **** 
 102:Generated_Source\PSoC5/ErikaOS_cortex_mx_ee_internal.inc **** /** Called as _last_ function of a primitive that can be called in
 103:Generated_Source\PSoC5/ErikaOS_cortex_mx_ee_internal.inc ****    an IRQ and in a task.  Enable IRQs if they were enabled before entering. */
 104:Generated_Source\PSoC5/ErikaOS_cortex_mx_ee_internal.inc **** __INLINE__ void  EE_hal_end_nested_primitive(EE_FREG f)
 105:Generated_Source\PSoC5/ErikaOS_cortex_mx_ee_internal.inc **** {
 106:Generated_Source\PSoC5/ErikaOS_cortex_mx_ee_internal.inc ****     EE_cortex_mx_resumeIRQ(f);
 107:Generated_Source\PSoC5/ErikaOS_cortex_mx_ee_internal.inc **** }
 108:Generated_Source\PSoC5/ErikaOS_cortex_mx_ee_internal.inc **** 
 109:Generated_Source\PSoC5/ErikaOS_cortex_mx_ee_internal.inc **** /* Used to get internal CPU priority. */
 110:Generated_Source\PSoC5/ErikaOS_cortex_mx_ee_internal.inc **** __INLINE__ EE_TYPEISR2PRIO  EE_hal_get_int_prio(void)
 111:Generated_Source\PSoC5/ErikaOS_cortex_mx_ee_internal.inc **** {
 112:Generated_Source\PSoC5/ErikaOS_cortex_mx_ee_internal.inc ****   return EE_cortex_mx_get_int_prio();
 113:Generated_Source\PSoC5/ErikaOS_cortex_mx_ee_internal.inc **** }
 114:Generated_Source\PSoC5/ErikaOS_cortex_mx_ee_internal.inc **** 
 115:Generated_Source\PSoC5/ErikaOS_cortex_mx_ee_internal.inc **** /* Used to set internal CPU priority. */
 116:Generated_Source\PSoC5/ErikaOS_cortex_mx_ee_internal.inc **** __INLINE__ void  EE_hal_set_int_prio(EE_TYPEISR2PRIO prio)
 117:Generated_Source\PSoC5/ErikaOS_cortex_mx_ee_internal.inc **** {
 118:Generated_Source\PSoC5/ErikaOS_cortex_mx_ee_internal.inc ****   EE_cortex_mx_set_int_prio(prio);
 119:Generated_Source\PSoC5/ErikaOS_cortex_mx_ee_internal.inc **** }
ARM GAS  C:\Users\agila\AppData\Local\Temp\cck4bOkV.s 			page 25


 120:Generated_Source\PSoC5/ErikaOS_cortex_mx_ee_internal.inc **** 
 121:Generated_Source\PSoC5/ErikaOS_cortex_mx_ee_internal.inc **** /*
 122:Generated_Source\PSoC5/ErikaOS_cortex_mx_ee_internal.inc ****  * Used to change internal CPU priority and return a status flag mask.
 123:Generated_Source\PSoC5/ErikaOS_cortex_mx_ee_internal.inc ****  *
 124:Generated_Source\PSoC5/ErikaOS_cortex_mx_ee_internal.inc ****  * Note:	EE_FREG param flag and return value needed only for according to
 125:Generated_Source\PSoC5/ErikaOS_cortex_mx_ee_internal.inc ****  * 		HAL interface.
 126:Generated_Source\PSoC5/ErikaOS_cortex_mx_ee_internal.inc ****  */
 127:Generated_Source\PSoC5/ErikaOS_cortex_mx_ee_internal.inc **** __INLINE__ EE_FREG  EE_hal_change_int_prio(
 128:Generated_Source\PSoC5/ErikaOS_cortex_mx_ee_internal.inc ****   EE_TYPEISR2PRIO prio, EE_FREG flag
 129:Generated_Source\PSoC5/ErikaOS_cortex_mx_ee_internal.inc **** )
 130:Generated_Source\PSoC5/ErikaOS_cortex_mx_ee_internal.inc **** {
 131:Generated_Source\PSoC5/ErikaOS_cortex_mx_ee_internal.inc ****   EE_hal_set_int_prio(prio);
 132:Generated_Source\PSoC5/ErikaOS_cortex_mx_ee_internal.inc ****   return flag;
 133:Generated_Source\PSoC5/ErikaOS_cortex_mx_ee_internal.inc **** }
 134:Generated_Source\PSoC5/ErikaOS_cortex_mx_ee_internal.inc **** 
 135:Generated_Source\PSoC5/ErikaOS_cortex_mx_ee_internal.inc **** /*
 136:Generated_Source\PSoC5/ErikaOS_cortex_mx_ee_internal.inc ****  * Used to raise internal CPU interrupt priority if param new_prio is greater
 137:Generated_Source\PSoC5/ErikaOS_cortex_mx_ee_internal.inc ****  * than actual priority.
 138:Generated_Source\PSoC5/ErikaOS_cortex_mx_ee_internal.inc ****  *
 139:Generated_Source\PSoC5/ErikaOS_cortex_mx_ee_internal.inc ****  * Note:	EE_FREG param flag and return value needed only for according to
 140:Generated_Source\PSoC5/ErikaOS_cortex_mx_ee_internal.inc ****  * 		HAL interface.
 141:Generated_Source\PSoC5/ErikaOS_cortex_mx_ee_internal.inc ****  */
 142:Generated_Source\PSoC5/ErikaOS_cortex_mx_ee_internal.inc **** __INLINE__ EE_FREG  EE_hal_raise_int_prio_if_less(
 143:Generated_Source\PSoC5/ErikaOS_cortex_mx_ee_internal.inc ****   EE_TYPEISR2PRIO new_prio, EE_FREG flag
 144:Generated_Source\PSoC5/ErikaOS_cortex_mx_ee_internal.inc **** )
 145:Generated_Source\PSoC5/ErikaOS_cortex_mx_ee_internal.inc **** {
 146:Generated_Source\PSoC5/ErikaOS_cortex_mx_ee_internal.inc ****   register EE_TYPEISR2PRIO prev_prio = EE_cortex_mx_get_int_prio();
 147:Generated_Source\PSoC5/ErikaOS_cortex_mx_ee_internal.inc ****   if(((new_prio != 0U) && (prev_prio > new_prio)) || (prev_prio == 0)) {
 148:Generated_Source\PSoC5/ErikaOS_cortex_mx_ee_internal.inc ****     EE_cortex_mx_set_int_prio(new_prio);
 149:Generated_Source\PSoC5/ErikaOS_cortex_mx_ee_internal.inc ****   }
 150:Generated_Source\PSoC5/ErikaOS_cortex_mx_ee_internal.inc ****   return flag;
 151:Generated_Source\PSoC5/ErikaOS_cortex_mx_ee_internal.inc **** }
 152:Generated_Source\PSoC5/ErikaOS_cortex_mx_ee_internal.inc **** 
 153:Generated_Source\PSoC5/ErikaOS_cortex_mx_ee_internal.inc **** /*
 154:Generated_Source\PSoC5/ErikaOS_cortex_mx_ee_internal.inc ****  * Used to check internal CPU interrupt priority if param new_prio is greater
 155:Generated_Source\PSoC5/ErikaOS_cortex_mx_ee_internal.inc ****  * than actual priority.
 156:Generated_Source\PSoC5/ErikaOS_cortex_mx_ee_internal.inc ****  */
 157:Generated_Source\PSoC5/ErikaOS_cortex_mx_ee_internal.inc **** __INLINE__ EE_BIT  EE_hal_check_int_prio_if_higher(
 158:Generated_Source\PSoC5/ErikaOS_cortex_mx_ee_internal.inc ****   EE_TYPEISR2PRIO new_prio
 159:Generated_Source\PSoC5/ErikaOS_cortex_mx_ee_internal.inc **** )
 160:Generated_Source\PSoC5/ErikaOS_cortex_mx_ee_internal.inc **** {
 161:Generated_Source\PSoC5/ErikaOS_cortex_mx_ee_internal.inc ****   register EE_TYPEISR2PRIO prev_prio = EE_cortex_mx_get_int_prio();
 162:Generated_Source\PSoC5/ErikaOS_cortex_mx_ee_internal.inc ****   return ((prev_prio != 0U) && ((prev_prio < new_prio) || (new_prio == 0U)));
 142              		.loc 5 162 0 discriminator 1
 143 0060 24B1     		cbz	r4, .L16
 144              		.loc 5 162 0 is_stmt 0
 145 0062 A642     		cmp	r6, r4
 146 0064 04D8     		bhi	.L17
 147 0066 2EB1     		cbz	r6, .L18
 148 0068 0024     		movs	r4, #0
 149 006a 04E0     		b	.L7
 150              	.L16:
 151 006c 0024     		movs	r4, #0
 152 006e 02E0     		b	.L7
 153              	.L17:
 154 0070 0124     		movs	r4, #1
 155 0072 00E0     		b	.L7
ARM GAS  C:\Users\agila\AppData\Local\Temp\cck4bOkV.s 			page 26


 156              	.L18:
 157 0074 0124     		movs	r4, #1
 158              	.L7:
 159              	.LVL6:
 160              	.LBE101:
 161              	.LBE100:
 159:Generated_Source\PSoC5/ErikaOS_ee_ulockres.c ****     (EE_hal_check_int_prio_if_higher(EE_resource_isr2_priority[ResID]) !=
 162              		.loc 1 159 0 is_stmt 1
 163 0076 14F0FF0F 		tst	r4, #255
 164 007a 52D1     		bne	.L19
 165              	.L6:
 161:Generated_Source\PSoC5/ErikaOS_ee_ulockres.c ****      0U) )
 162:Generated_Source\PSoC5/ErikaOS_ee_ulockres.c ****   {
 163:Generated_Source\PSoC5/ErikaOS_ee_ulockres.c ****     ev = E_OS_ACCESS;
 164:Generated_Source\PSoC5/ErikaOS_ee_ulockres.c ****   } else
 165:Generated_Source\PSoC5/ErikaOS_ee_ulockres.c **** #else /* __OO_ISR2_RESOURCES__ */
 166:Generated_Source\PSoC5/ErikaOS_ee_ulockres.c ****   if ( inside_task == EE_FALSE ) {
 167:Generated_Source\PSoC5/ErikaOS_ee_ulockres.c ****     ev = E_OS_ACCESS;
 168:Generated_Source\PSoC5/ErikaOS_ee_ulockres.c ****   } else
 169:Generated_Source\PSoC5/ErikaOS_ee_ulockres.c **** #endif /* __OO_ISR2_RESOURCES__ */
 170:Generated_Source\PSoC5/ErikaOS_ee_ulockres.c **** #endif /* __OO_EXTENDED_STATUS__ */
 171:Generated_Source\PSoC5/ErikaOS_ee_ulockres.c ****   {
 172:Generated_Source\PSoC5/ErikaOS_ee_ulockres.c ****     /* Stop TP Lock Budget, if needed */
 173:Generated_Source\PSoC5/ErikaOS_ee_ulockres.c ****     EE_as_tp_active_stop_budget(EE_RESOURCE_LOCK_BUDGET, ResID, EE_FALSE);
 174:Generated_Source\PSoC5/ErikaOS_ee_ulockres.c **** 
 175:Generated_Source\PSoC5/ErikaOS_ee_ulockres.c **** #ifdef __OO_ISR2_RESOURCES__
 176:Generated_Source\PSoC5/ErikaOS_ee_ulockres.c ****     /* Restore old ISR2 priority */
 177:Generated_Source\PSoC5/ErikaOS_ee_ulockres.c ****     flag = EE_hal_change_int_prio(EE_isr2_oldpriority[ResID], flag);
 166              		.loc 1 177 0
 167 007c 364C     		ldr	r4, .L24+32
 168 007e 54F82040 		ldr	r4, [r4, r0, lsl #2]
 169              	.LVL7:
 170              	.LBB104:
 171              	.LBB105:
 172              	.LBB106:
 173              	.LBB107:
 326:Generated_Source\PSoC5/ErikaOS_cortex_mx_ee_cpu.inc **** #else
 327:Generated_Source\PSoC5/ErikaOS_cortex_mx_ee_cpu.inc **** 	__ASM volatile("MRS %0, BASEPRI" :: "=r" (prio));
 328:Generated_Source\PSoC5/ErikaOS_cortex_mx_ee_cpu.inc **** #endif	/* !__GNU__ */
 329:Generated_Source\PSoC5/ErikaOS_cortex_mx_ee_cpu.inc **** #endif	/* !__KEIL__ */
 330:Generated_Source\PSoC5/ErikaOS_cortex_mx_ee_cpu.inc **** #endif	/* !__CCS__ */
 331:Generated_Source\PSoC5/ErikaOS_cortex_mx_ee_cpu.inc **** 
 332:Generated_Source\PSoC5/ErikaOS_cortex_mx_ee_cpu.inc **** #ifdef __CCS__
 333:Generated_Source\PSoC5/ErikaOS_cortex_mx_ee_cpu.inc **** 	return 0;
 334:Generated_Source\PSoC5/ErikaOS_cortex_mx_ee_cpu.inc **** #else
 335:Generated_Source\PSoC5/ErikaOS_cortex_mx_ee_cpu.inc **** 	return prio >> NVIC_INT_PRI_S;
 336:Generated_Source\PSoC5/ErikaOS_cortex_mx_ee_cpu.inc **** #endif
 337:Generated_Source\PSoC5/ErikaOS_cortex_mx_ee_cpu.inc **** 
 338:Generated_Source\PSoC5/ErikaOS_cortex_mx_ee_cpu.inc **** #else	/* __CORTEX_M4__ */
 339:Generated_Source\PSoC5/ErikaOS_cortex_mx_ee_cpu.inc **** 	return 0;
 340:Generated_Source\PSoC5/ErikaOS_cortex_mx_ee_cpu.inc **** #endif	/* !__CORTEX_M4__ */
 341:Generated_Source\PSoC5/ErikaOS_cortex_mx_ee_cpu.inc **** }
 342:Generated_Source\PSoC5/ErikaOS_cortex_mx_ee_cpu.inc **** 
 343:Generated_Source\PSoC5/ErikaOS_cortex_mx_ee_cpu.inc **** __INLINE__ void  EE_cortex_mx_set_int_prio(
 344:Generated_Source\PSoC5/ErikaOS_cortex_mx_ee_cpu.inc ****   EE_TYPEISR2PRIO prio
 345:Generated_Source\PSoC5/ErikaOS_cortex_mx_ee_cpu.inc **** )
 346:Generated_Source\PSoC5/ErikaOS_cortex_mx_ee_cpu.inc **** {
ARM GAS  C:\Users\agila\AppData\Local\Temp\cck4bOkV.s 			page 27


 347:Generated_Source\PSoC5/ErikaOS_cortex_mx_ee_cpu.inc **** #ifdef __CORTEX_M4__
 348:Generated_Source\PSoC5/ErikaOS_cortex_mx_ee_cpu.inc **** #ifdef __CCS__
 349:Generated_Source\PSoC5/ErikaOS_cortex_mx_ee_cpu.inc **** 	/* NVIC_INT_PRI_S = 5 */
 350:Generated_Source\PSoC5/ErikaOS_cortex_mx_ee_cpu.inc **** 	__ASM ("    LSL    R0, #5\n"
 351:Generated_Source\PSoC5/ErikaOS_cortex_mx_ee_cpu.inc **** 	       "    MSR    BASEPRI, R0\n");
 352:Generated_Source\PSoC5/ErikaOS_cortex_mx_ee_cpu.inc **** #else	/* __CCS__ */
 353:Generated_Source\PSoC5/ErikaOS_cortex_mx_ee_cpu.inc **** #ifdef __KEIL__
 354:Generated_Source\PSoC5/ErikaOS_cortex_mx_ee_cpu.inc **** 	register EE_FREG BASEPRI __ASM("basepri");
 355:Generated_Source\PSoC5/ErikaOS_cortex_mx_ee_cpu.inc **** 	BASEPRI = (prio << NVIC_INT_PRI_S);
 356:Generated_Source\PSoC5/ErikaOS_cortex_mx_ee_cpu.inc **** #else	/* __KEIL__ */
 357:Generated_Source\PSoC5/ErikaOS_cortex_mx_ee_cpu.inc **** #ifdef __GNU__
 358:Generated_Source\PSoC5/ErikaOS_cortex_mx_ee_cpu.inc **** 	__ASM volatile("MSR BASEPRI, %0" :: "r" (prio << NVIC_INT_PRI_S) : );
 174              		.loc 4 358 0
 175              		.syntax unified
 176              	@ 358 "Generated_Source\PSoC5\ErikaOS_cortex_mx_ee_cpu.inc" 1
 177 0082 84F31188 		MSR BASEPRI, r4
 178              	@ 0 "" 2
 179              	.LVL8:
 180              		.thumb
 181              		.syntax unified
 182              	.LBE107:
 183              	.LBE106:
 184              	.LBE105:
 185              	.LBE104:
 178:Generated_Source\PSoC5/ErikaOS_ee_ulockres.c **** #endif /* __OO_ISR2_RESOURCES__ */
 179:Generated_Source\PSoC5/ErikaOS_ee_ulockres.c **** 
 180:Generated_Source\PSoC5/ErikaOS_ee_ulockres.c **** #if (defined(__OO_EXTENDED_STATUS__)) || (defined(__OO_ISR2_RESOURCES__))
 181:Generated_Source\PSoC5/ErikaOS_ee_ulockres.c ****     /* remove the last entry from the data structure */
 182:Generated_Source\PSoC5/ErikaOS_ee_ulockres.c ****     EE_th_resource_last[current] = 
 183:Generated_Source\PSoC5/ErikaOS_ee_ulockres.c ****       EE_resource_stack[EE_th_resource_last[current]];
 186              		.loc 1 183 0
 187 0086 354C     		ldr	r4, .L24+36
 188 0088 54F82140 		ldr	r4, [r4, r1, lsl #2]
 182:Generated_Source\PSoC5/ErikaOS_ee_ulockres.c ****       EE_resource_stack[EE_th_resource_last[current]];
 189              		.loc 1 182 0
 190 008c 2E49     		ldr	r1, .L24+16
 191 008e 41F82340 		str	r4, [r1, r3, lsl #2]
 184:Generated_Source\PSoC5/ErikaOS_ee_ulockres.c **** #endif /* __OO_EXTENDED_STATUS__ || __OO_ISR2_RESOURCES__ */
 185:Generated_Source\PSoC5/ErikaOS_ee_ulockres.c **** 
 186:Generated_Source\PSoC5/ErikaOS_ee_ulockres.c **** #if (defined(__OO_EXTENDED_STATUS__)) || (defined(__OO_ORTI_RES_ISLOCKED__))
 187:Generated_Source\PSoC5/ErikaOS_ee_ulockres.c ****     /* ok, we have to free that resource! */
 188:Generated_Source\PSoC5/ErikaOS_ee_ulockres.c ****     EE_resource_locked[ResID] = EE_FALSE;
 192              		.loc 1 188 0
 193 0092 0021     		movs	r1, #0
 194 0094 2B4B     		ldr	r3, .L24+12
 195              	.LVL9:
 196 0096 43F82010 		str	r1, [r3, r0, lsl #2]
 189:Generated_Source\PSoC5/ErikaOS_ee_ulockres.c **** #endif /* __OO_EXTENDED_STATUS__ || __OO_ORTI_RES_ISLOCKED__ */
 190:Generated_Source\PSoC5/ErikaOS_ee_ulockres.c **** 
 191:Generated_Source\PSoC5/ErikaOS_ee_ulockres.c **** #ifdef __MSRP__
 192:Generated_Source\PSoC5/ErikaOS_ee_ulockres.c ****     /* if this is a global resource, unlock the others CPUs */
 193:Generated_Source\PSoC5/ErikaOS_ee_ulockres.c ****     if ( isGlobal ) {
 194:Generated_Source\PSoC5/ErikaOS_ee_ulockres.c ****       EE_hal_spin_out((EE_TYPESPIN)ResID);
 195:Generated_Source\PSoC5/ErikaOS_ee_ulockres.c ****     }
 196:Generated_Source\PSoC5/ErikaOS_ee_ulockres.c **** #endif /* __MSRP__ */
 197:Generated_Source\PSoC5/ErikaOS_ee_ulockres.c **** 
 198:Generated_Source\PSoC5/ErikaOS_ee_ulockres.c ****     /* there is no need to store that the resource has no more lockers,
ARM GAS  C:\Users\agila\AppData\Local\Temp\cck4bOkV.s 			page 28


 199:Generated_Source\PSoC5/ErikaOS_ee_ulockres.c ****        because we inserted an if expression into the ORTI File */
 200:Generated_Source\PSoC5/ErikaOS_ee_ulockres.c **** #if 0    
 201:Generated_Source\PSoC5/ErikaOS_ee_ulockres.c **** #ifdef __OO_ORTI_RES_LOCKER_TASK__
 202:Generated_Source\PSoC5/ErikaOS_ee_ulockres.c ****     EE_ORTI_res_locker[ResID] = EE_NIL;
 203:Generated_Source\PSoC5/ErikaOS_ee_ulockres.c **** #endif
 204:Generated_Source\PSoC5/ErikaOS_ee_ulockres.c **** #endif
 205:Generated_Source\PSoC5/ErikaOS_ee_ulockres.c ****     
 206:Generated_Source\PSoC5/ErikaOS_ee_ulockres.c ****     EE_sys_ceiling = EE_resource_oldceiling[ResID];
 197              		.loc 1 206 0
 198 009a 314B     		ldr	r3, .L24+40
 199 009c 53F82010 		ldr	r1, [r3, r0, lsl #2]
 200 00a0 304B     		ldr	r3, .L24+44
 201 00a2 1960     		str	r1, [r3]
 207:Generated_Source\PSoC5/ErikaOS_ee_ulockres.c **** 
 208:Generated_Source\PSoC5/ErikaOS_ee_ulockres.c **** #ifdef __OO_ORTI_PRIORITY__
 209:Generated_Source\PSoC5/ErikaOS_ee_ulockres.c ****     EE_ORTI_th_priority[current] = EE_ORTI_resource_oldpriority[ResID];
 210:Generated_Source\PSoC5/ErikaOS_ee_ulockres.c **** #endif /* __OO_ORTI_PRIORITY__ */
 211:Generated_Source\PSoC5/ErikaOS_ee_ulockres.c **** 
 212:Generated_Source\PSoC5/ErikaOS_ee_ulockres.c ****     /* Check if there is a preemption
 213:Generated_Source\PSoC5/ErikaOS_ee_ulockres.c ****        this test has to be done only if we are inside a task */
 214:Generated_Source\PSoC5/ErikaOS_ee_ulockres.c ****     if ( inside_task ) {
 202              		.loc 1 214 0
 203 00a4 002A     		cmp	r2, #0
 204 00a6 3ED1     		bne	.L20
 205              	.LBB108:
 206              	.LBB109:
 207              	.LBB110:
 208              	.LBB111:
 240:Generated_Source\PSoC5/ErikaOS_ee_oo_internal.inc **** }
 209              		.loc 2 240 0
 210 00a8 234B     		ldr	r3, .L24
 211 00aa 1C68     		ldr	r4, [r3]
 212              	.LBE111:
 213              	.LBE110:
 543:Generated_Source\PSoC5/ErikaOS_ee_oo_internal.inc **** }
 544:Generated_Source\PSoC5/ErikaOS_ee_oo_internal.inc **** #endif /* __OO_ISR2_RESOURCES__ || EE_AS_USER_SPINLOCKS__ */
 545:Generated_Source\PSoC5/ErikaOS_ee_oo_internal.inc **** 
 546:Generated_Source\PSoC5/ErikaOS_ee_oo_internal.inc **** #if (defined(__OO_ECC1__)) || (defined(__OO_ECC2__))
 547:Generated_Source\PSoC5/ErikaOS_ee_oo_internal.inc **** /*
 548:Generated_Source\PSoC5/ErikaOS_ee_oo_internal.inc ****     Reset Active Events  THREAD utility method.
 549:Generated_Source\PSoC5/ErikaOS_ee_oo_internal.inc **** 
 550:Generated_Source\PSoC5/ErikaOS_ee_oo_internal.inc ****     When an extended task is transferred from suspended state
 551:Generated_Source\PSoC5/ErikaOS_ee_oo_internal.inc ****     into ready state all its events have to be cleared cleared
 552:Generated_Source\PSoC5/ErikaOS_ee_oo_internal.inc **** */
 553:Generated_Source\PSoC5/ErikaOS_ee_oo_internal.inc **** __INLINE__ void  EE_oo_reset_th_event_active(TaskType tnotactive)
 554:Generated_Source\PSoC5/ErikaOS_ee_oo_internal.inc **** {
 555:Generated_Source\PSoC5/ErikaOS_ee_oo_internal.inc ****     EE_th_event_active[tnotactive] = 0U;
 556:Generated_Source\PSoC5/ErikaOS_ee_oo_internal.inc **** }
 557:Generated_Source\PSoC5/ErikaOS_ee_oo_internal.inc **** 
 558:Generated_Source\PSoC5/ErikaOS_ee_oo_internal.inc **** /* 
 559:Generated_Source\PSoC5/ErikaOS_ee_oo_internal.inc ****   This method actually do a CONTEXT SWITCH, with the highest priority TASK
 560:Generated_Source\PSoC5/ErikaOS_ee_oo_internal.inc **** */
 561:Generated_Source\PSoC5/ErikaOS_ee_oo_internal.inc **** #ifdef __MULTI__
 562:Generated_Source\PSoC5/ErikaOS_ee_oo_internal.inc **** __INLINE__ void  EE_oo_run_next_task(void)
 563:Generated_Source\PSoC5/ErikaOS_ee_oo_internal.inc **** {
 564:Generated_Source\PSoC5/ErikaOS_ee_oo_internal.inc ****     register TaskType tmp;
 565:Generated_Source\PSoC5/ErikaOS_ee_oo_internal.inc ****     /* swap from ready queue to stack queue */
ARM GAS  C:\Users\agila\AppData\Local\Temp\cck4bOkV.s 			page 29


 566:Generated_Source\PSoC5/ErikaOS_ee_oo_internal.inc ****     tmp = EE_rq2stk_exchange();
 567:Generated_Source\PSoC5/ErikaOS_ee_oo_internal.inc ****     if ( EE_th_waswaiting[tmp] ) {
 568:Generated_Source\PSoC5/ErikaOS_ee_oo_internal.inc ****       /* if the task was waiting switch the context to restart it */
 569:Generated_Source\PSoC5/ErikaOS_ee_oo_internal.inc ****       EE_th_waswaiting[tmp] = EE_FALSE;
 570:Generated_Source\PSoC5/ErikaOS_ee_oo_internal.inc ****       /* Call the PreTaskHook, here no stub will do that for you */
 571:Generated_Source\PSoC5/ErikaOS_ee_oo_internal.inc ****       EE_oo_call_PreTaskHook();
 572:Generated_Source\PSoC5/ErikaOS_ee_oo_internal.inc ****       EE_hal_stkchange(tmp);
 573:Generated_Source\PSoC5/ErikaOS_ee_oo_internal.inc ****     } else {
 574:Generated_Source\PSoC5/ErikaOS_ee_oo_internal.inc ****       /* the next task have to be started */
 575:Generated_Source\PSoC5/ErikaOS_ee_oo_internal.inc ****       EE_hal_ready2stacked(tmp);
 576:Generated_Source\PSoC5/ErikaOS_ee_oo_internal.inc ****     }
 577:Generated_Source\PSoC5/ErikaOS_ee_oo_internal.inc **** }
 578:Generated_Source\PSoC5/ErikaOS_ee_oo_internal.inc **** #else
 579:Generated_Source\PSoC5/ErikaOS_ee_oo_internal.inc **** __INLINE__ void  EE_oo_run_next_task(void)
 580:Generated_Source\PSoC5/ErikaOS_ee_oo_internal.inc **** {
 581:Generated_Source\PSoC5/ErikaOS_ee_oo_internal.inc ****     EE_hal_ready2stacked(EE_rq2stk_exchange());
 582:Generated_Source\PSoC5/ErikaOS_ee_oo_internal.inc **** }
 583:Generated_Source\PSoC5/ErikaOS_ee_oo_internal.inc **** #endif /* __MULTI__ */
 584:Generated_Source\PSoC5/ErikaOS_ee_oo_internal.inc **** #else
 585:Generated_Source\PSoC5/ErikaOS_ee_oo_internal.inc **** #define EE_oo_reset_th_event_active(TaskID)    ((void) 0)
 586:Generated_Source\PSoC5/ErikaOS_ee_oo_internal.inc **** 
 587:Generated_Source\PSoC5/ErikaOS_ee_oo_internal.inc **** /* 
 588:Generated_Source\PSoC5/ErikaOS_ee_oo_internal.inc ****   This method actually do a CONTEXT SWITCH, with the highest priority TASK
 589:Generated_Source\PSoC5/ErikaOS_ee_oo_internal.inc **** */
 590:Generated_Source\PSoC5/ErikaOS_ee_oo_internal.inc **** __INLINE__ void  EE_oo_run_next_task(void)
 591:Generated_Source\PSoC5/ErikaOS_ee_oo_internal.inc **** {
 592:Generated_Source\PSoC5/ErikaOS_ee_oo_internal.inc ****     EE_hal_ready2stacked(EE_rq2stk_exchange());
 593:Generated_Source\PSoC5/ErikaOS_ee_oo_internal.inc **** }
 594:Generated_Source\PSoC5/ErikaOS_ee_oo_internal.inc **** #endif /* defined(__OO_ECC1__) || defined(__OO_ECC2__) */
 595:Generated_Source\PSoC5/ErikaOS_ee_oo_internal.inc **** 
 596:Generated_Source\PSoC5/ErikaOS_ee_oo_internal.inc **** 
 597:Generated_Source\PSoC5/ErikaOS_ee_oo_internal.inc **** #if (defined(__OO_BCC2__)) || (defined(__OO_ECC2__))
 598:Generated_Source\PSoC5/ErikaOS_ee_oo_internal.inc ****   /*
 599:Generated_Source\PSoC5/ErikaOS_ee_oo_internal.inc ****     Set THREAD ready utility method.
 600:Generated_Source\PSoC5/ErikaOS_ee_oo_internal.inc ****     If the task is BCC2/ECC2 it can be that it is ready or 
 601:Generated_Source\PSoC5/ErikaOS_ee_oo_internal.inc ****     running. in that case we have to check and queue it anyway
 602:Generated_Source\PSoC5/ErikaOS_ee_oo_internal.inc ****   */
 603:Generated_Source\PSoC5/ErikaOS_ee_oo_internal.inc **** __INLINE__ void  EE_oo_set_th_status_ready(TaskType TaskID)
 604:Generated_Source\PSoC5/ErikaOS_ee_oo_internal.inc **** {
 605:Generated_Source\PSoC5/ErikaOS_ee_oo_internal.inc ****     if (EE_th_status[TaskID] == SUSPENDED) {
 606:Generated_Source\PSoC5/ErikaOS_ee_oo_internal.inc ****         EE_th_status[TaskID] = READY;
 607:Generated_Source\PSoC5/ErikaOS_ee_oo_internal.inc ****         EE_oo_reset_th_event_active(TaskID);
 608:Generated_Source\PSoC5/ErikaOS_ee_oo_internal.inc ****     }
 609:Generated_Source\PSoC5/ErikaOS_ee_oo_internal.inc **** }
 610:Generated_Source\PSoC5/ErikaOS_ee_oo_internal.inc **** #else
 611:Generated_Source\PSoC5/ErikaOS_ee_oo_internal.inc ****   /*
 612:Generated_Source\PSoC5/ErikaOS_ee_oo_internal.inc ****     Set THREAD ready utility method
 613:Generated_Source\PSoC5/ErikaOS_ee_oo_internal.inc ****     If the task is BCC1/ECC1 it can be here only because
 614:Generated_Source\PSoC5/ErikaOS_ee_oo_internal.inc ****     it had rnact=1 before the call, and so it is in suspended state
 615:Generated_Source\PSoC5/ErikaOS_ee_oo_internal.inc ****   */
 616:Generated_Source\PSoC5/ErikaOS_ee_oo_internal.inc **** __INLINE__ void  EE_oo_set_th_status_ready(TaskType tready)
 617:Generated_Source\PSoC5/ErikaOS_ee_oo_internal.inc **** {
 618:Generated_Source\PSoC5/ErikaOS_ee_oo_internal.inc ****     EE_th_status[tready] = READY;
 619:Generated_Source\PSoC5/ErikaOS_ee_oo_internal.inc ****     EE_oo_reset_th_event_active(tready);
 620:Generated_Source\PSoC5/ErikaOS_ee_oo_internal.inc **** }
 621:Generated_Source\PSoC5/ErikaOS_ee_oo_internal.inc **** #endif /* defined(__OO_BCC2__) || defined(__OO_ECC2__) */
 622:Generated_Source\PSoC5/ErikaOS_ee_oo_internal.inc **** 
ARM GAS  C:\Users\agila\AppData\Local\Temp\cck4bOkV.s 			page 30


 623:Generated_Source\PSoC5/ErikaOS_ee_oo_internal.inc **** __INLINE__ void  EE_oo_task_in_ready_queue( TaskType tid )
 624:Generated_Source\PSoC5/ErikaOS_ee_oo_internal.inc **** {
 625:Generated_Source\PSoC5/ErikaOS_ee_oo_internal.inc ****   /* Decrement the residual number activation */
 626:Generated_Source\PSoC5/ErikaOS_ee_oo_internal.inc ****   --EE_th_rnact[tid];
 627:Generated_Source\PSoC5/ErikaOS_ee_oo_internal.inc ****   /* Set the status READY handling multiple activations */
 628:Generated_Source\PSoC5/ErikaOS_ee_oo_internal.inc ****   EE_oo_set_th_status_ready(tid);
 629:Generated_Source\PSoC5/ErikaOS_ee_oo_internal.inc ****   /* insert the task in the ready queue */
 630:Generated_Source\PSoC5/ErikaOS_ee_oo_internal.inc ****   EE_rq_insert(tid);
 631:Generated_Source\PSoC5/ErikaOS_ee_oo_internal.inc **** }
 632:Generated_Source\PSoC5/ErikaOS_ee_oo_internal.inc **** 
 633:Generated_Source\PSoC5/ErikaOS_ee_oo_internal.inc **** /* Execute a preemption */
 634:Generated_Source\PSoC5/ErikaOS_ee_oo_internal.inc **** #ifndef __PRIVATE_PREEMPTION_POINTS__
 635:Generated_Source\PSoC5/ErikaOS_ee_oo_internal.inc **** /*
 636:Generated_Source\PSoC5/ErikaOS_ee_oo_internal.inc ****   Moved preemption check implementation into an outside method because the
 637:Generated_Source\PSoC5/ErikaOS_ee_oo_internal.inc ****   behaviour is common to EE_ActivateTask, EE_oo_ForceSchedule,
 638:Generated_Source\PSoC5/ErikaOS_ee_oo_internal.inc ****   EE_oo_IncrementCounter, EE_oo_ReleaseResource, EE_oo_PostSem
 639:Generated_Source\PSoC5/ErikaOS_ee_oo_internal.inc **** */
 640:Generated_Source\PSoC5/ErikaOS_ee_oo_internal.inc **** __INLINE__ void  EE_oo_preemption_point(void)
 641:Generated_Source\PSoC5/ErikaOS_ee_oo_internal.inc **** {
 642:Generated_Source\PSoC5/ErikaOS_ee_oo_internal.inc ****   register EE_TID current, rq;
 643:Generated_Source\PSoC5/ErikaOS_ee_oo_internal.inc **** 
 644:Generated_Source\PSoC5/ErikaOS_ee_oo_internal.inc ****   /* check if there is a preemption */
 645:Generated_Source\PSoC5/ErikaOS_ee_oo_internal.inc ****   current = EE_stk_queryfirst();
 646:Generated_Source\PSoC5/ErikaOS_ee_oo_internal.inc ****   rq      = EE_rq_queryfirst();
 214              		.loc 2 646 0
 215 00ac FFF7FEFF 		bl	EE_rq_queryfirst
 216              	.LVL10:
 647:Generated_Source\PSoC5/ErikaOS_ee_oo_internal.inc **** 
 648:Generated_Source\PSoC5/ErikaOS_ee_oo_internal.inc **** #if (defined(EE_AS_OSAPPLICATIONS__)) && (defined(__EE_MEMORY_PROTECTION__))
 649:Generated_Source\PSoC5/ErikaOS_ee_oo_internal.inc **** #if (defined(EE_SYSCALL_NR)) && (defined(EE_MAX_SYS_SERVICEID)) \
 650:Generated_Source\PSoC5/ErikaOS_ee_oo_internal.inc ****   && (EE_SYSCALL_NR > EE_MAX_SYS_SERVICEID)
 651:Generated_Source\PSoC5/ErikaOS_ee_oo_internal.inc ****   /* Reaction to timing protection can be defined to terminate the
 652:Generated_Source\PSoC5/ErikaOS_ee_oo_internal.inc ****      OSApplication. If a task is inside CallTrustedFunction() and task
 653:Generated_Source\PSoC5/ErikaOS_ee_oo_internal.inc ****      rescheduling takes place within the same OSApplication,
 654:Generated_Source\PSoC5/ErikaOS_ee_oo_internal.inc ****      the newly running higher priority task may cause timing protection and
 655:Generated_Source\PSoC5/ErikaOS_ee_oo_internal.inc ****      terminate the OSApplication, thus indirectly aborting the trusted
 656:Generated_Source\PSoC5/ErikaOS_ee_oo_internal.inc ****      function. To avoid this, the scheduling of other Tasks which belong to
 657:Generated_Source\PSoC5/ErikaOS_ee_oo_internal.inc ****      the same OS-Application as the caller needs to be restricted, as well as
 658:Generated_Source\PSoC5/ErikaOS_ee_oo_internal.inc ****      the availability of interrupts of the same OS-Application. */
 659:Generated_Source\PSoC5/ErikaOS_ee_oo_internal.inc ****   /* [SWS_Os_00563]: The OperatingSystem shall not schedule any other Tasks
 660:Generated_Source\PSoC5/ErikaOS_ee_oo_internal.inc ****       which belong to the same OS-Application as the non-trusted caller of the
 661:Generated_Source\PSoC5/ErikaOS_ee_oo_internal.inc ****       service. Also interrupts of Category 2 which belong to the same
 662:Generated_Source\PSoC5/ErikaOS_ee_oo_internal.inc ****       OS-Application shall be disabled during the execution of the service. */
 663:Generated_Source\PSoC5/ErikaOS_ee_oo_internal.inc ****   if (  (EE_as_active_app != EE_th_app[rq + 1]) ||
 664:Generated_Source\PSoC5/ErikaOS_ee_oo_internal.inc ****         (EE_as_Application_RAM[EE_as_active_app].
 665:Generated_Source\PSoC5/ErikaOS_ee_oo_internal.inc ****           TrustedFunctionCallsCounter == 0U) ||
 666:Generated_Source\PSoC5/ErikaOS_ee_oo_internal.inc ****         (EE_as_Application_ROM[EE_as_active_app].Mode == EE_MEMPROT_TRUST_MODE)
 667:Generated_Source\PSoC5/ErikaOS_ee_oo_internal.inc ****      )
 668:Generated_Source\PSoC5/ErikaOS_ee_oo_internal.inc **** #endif /* EE_SYSCALL_NR > EE_MAX_SYS_SERVICEID */
 669:Generated_Source\PSoC5/ErikaOS_ee_oo_internal.inc **** #endif /* EE_AS_OSAPPLICATIONS__ && __EE_MEMORY_PROTECTION__ */
 670:Generated_Source\PSoC5/ErikaOS_ee_oo_internal.inc ****   {
 671:Generated_Source\PSoC5/ErikaOS_ee_oo_internal.inc ****     if ( rq != EE_NIL ) {
 217              		.loc 2 671 0
 218 00b0 B0F1FF3F 		cmp	r0, #-1
 219 00b4 39D0     		beq	.L21
 672:Generated_Source\PSoC5/ErikaOS_ee_oo_internal.inc ****       /* We check if the system ceiling is greater or not the first task
 673:Generated_Source\PSoC5/ErikaOS_ee_oo_internal.inc ****          in the ready queue */
ARM GAS  C:\Users\agila\AppData\Local\Temp\cck4bOkV.s 			page 31


 674:Generated_Source\PSoC5/ErikaOS_ee_oo_internal.inc ****       if ( EE_sys_ceiling < EE_th_ready_prio[rq] ) {
 220              		.loc 2 674 0
 221 00b6 254B     		ldr	r3, .L24+20
 222 00b8 53F82030 		ldr	r3, [r3, r0, lsl #2]
 223 00bc 294A     		ldr	r2, .L24+44
 224 00be 1268     		ldr	r2, [r2]
 225 00c0 9342     		cmp	r3, r2
 226 00c2 34D9     		bls	.L22
 675:Generated_Source\PSoC5/ErikaOS_ee_oo_internal.inc **** 
 676:Generated_Source\PSoC5/ErikaOS_ee_oo_internal.inc ****         if ( current != EE_NIL ) {
 227              		.loc 2 676 0
 228 00c4 B4F1FF3F 		cmp	r4, #-1
 229 00c8 03D0     		beq	.L8
 677:Generated_Source\PSoC5/ErikaOS_ee_oo_internal.inc ****           EE_oo_call_PostTaskHook();
 678:Generated_Source\PSoC5/ErikaOS_ee_oo_internal.inc ****           /* We have to put the task in the READY status */
 679:Generated_Source\PSoC5/ErikaOS_ee_oo_internal.inc ****           EE_th_status[current] = READY;
 230              		.loc 2 679 0
 231 00ca 0221     		movs	r1, #2
 232 00cc 264B     		ldr	r3, .L24+48
 233 00ce 43F82410 		str	r1, [r3, r4, lsl #2]
 234              	.L8:
 680:Generated_Source\PSoC5/ErikaOS_ee_oo_internal.inc ****           /* !!! BUT NOT IN THE READY QUEUE !!!
 681:Generated_Source\PSoC5/ErikaOS_ee_oo_internal.inc ****              The task remains into the Stacked Queue! */
 682:Generated_Source\PSoC5/ErikaOS_ee_oo_internal.inc ****         }
 683:Generated_Source\PSoC5/ErikaOS_ee_oo_internal.inc **** 
 684:Generated_Source\PSoC5/ErikaOS_ee_oo_internal.inc ****         /* Get the new internal resource */
 685:Generated_Source\PSoC5/ErikaOS_ee_oo_internal.inc ****         EE_sys_ceiling |= EE_th_dispatch_prio[rq];
 235              		.loc 2 685 0
 236 00d2 264B     		ldr	r3, .L24+52
 237 00d4 53F82030 		ldr	r3, [r3, r0, lsl #2]
 238 00d8 1343     		orrs	r3, r3, r2
 239 00da 224A     		ldr	r2, .L24+44
 240 00dc 1360     		str	r3, [r2]
 686:Generated_Source\PSoC5/ErikaOS_ee_oo_internal.inc ****         /* Put the task in running state */
 687:Generated_Source\PSoC5/ErikaOS_ee_oo_internal.inc ****         EE_th_status[rq] = RUNNING;
 241              		.loc 2 687 0
 242 00de 0022     		movs	r2, #0
 243 00e0 214B     		ldr	r3, .L24+48
 244 00e2 43F82020 		str	r2, [r3, r0, lsl #2]
 245              	.LBB112:
 246              	.LBB113:
 566:Generated_Source\PSoC5/ErikaOS_ee_oo_internal.inc ****     if ( EE_th_waswaiting[tmp] ) {
 247              		.loc 2 566 0
 248 00e6 FFF7FEFF 		bl	EE_rq2stk_exchange
 249              	.LVL11:
 567:Generated_Source\PSoC5/ErikaOS_ee_oo_internal.inc ****       /* if the task was waiting switch the context to restart it */
 250              		.loc 2 567 0
 251 00ea 214B     		ldr	r3, .L24+56
 252 00ec 53F82030 		ldr	r3, [r3, r0, lsl #2]
 253 00f0 4BB1     		cbz	r3, .L9
 569:Generated_Source\PSoC5/ErikaOS_ee_oo_internal.inc ****       /* Call the PreTaskHook, here no stub will do that for you */
 254              		.loc 2 569 0
 255 00f2 0024     		movs	r4, #0
 256 00f4 1E4B     		ldr	r3, .L24+56
 257 00f6 43F82040 		str	r4, [r3, r0, lsl #2]
 258              	.LVL12:
 259              	.LBB114:
ARM GAS  C:\Users\agila\AppData\Local\Temp\cck4bOkV.s 			page 32


 260              	.LBB115:
 261              		.file 6 "Generated_Source\\PSoC5\\ErikaOS_cortex_mx_ee_context.inc"
   1:Generated_Source\PSoC5/ErikaOS_cortex_mx_ee_context.inc **** /* ###*B*###
   2:Generated_Source\PSoC5/ErikaOS_cortex_mx_ee_context.inc ****  * ERIKA Enterprise - a tiny RTOS for small microcontrollers
   3:Generated_Source\PSoC5/ErikaOS_cortex_mx_ee_context.inc ****  *
   4:Generated_Source\PSoC5/ErikaOS_cortex_mx_ee_context.inc ****  * Copyright (C) 2002-2011  Evidence Srl
   5:Generated_Source\PSoC5/ErikaOS_cortex_mx_ee_context.inc ****  *
   6:Generated_Source\PSoC5/ErikaOS_cortex_mx_ee_context.inc ****  * This file is part of ERIKA Enterprise.
   7:Generated_Source\PSoC5/ErikaOS_cortex_mx_ee_context.inc ****  *
   8:Generated_Source\PSoC5/ErikaOS_cortex_mx_ee_context.inc ****  * ERIKA Enterprise is free software; you can redistribute it
   9:Generated_Source\PSoC5/ErikaOS_cortex_mx_ee_context.inc ****  * and/or modify it under the terms of the GNU General Public License
  10:Generated_Source\PSoC5/ErikaOS_cortex_mx_ee_context.inc ****  * version 2 as published by the Free Software Foundation, 
  11:Generated_Source\PSoC5/ErikaOS_cortex_mx_ee_context.inc ****  * (with a special exception described below).
  12:Generated_Source\PSoC5/ErikaOS_cortex_mx_ee_context.inc ****  *
  13:Generated_Source\PSoC5/ErikaOS_cortex_mx_ee_context.inc ****  * Linking this code statically or dynamically with other modules is
  14:Generated_Source\PSoC5/ErikaOS_cortex_mx_ee_context.inc ****  * making a combined work based on this code.  Thus, the terms and
  15:Generated_Source\PSoC5/ErikaOS_cortex_mx_ee_context.inc ****  * conditions of the GNU General Public License cover the whole
  16:Generated_Source\PSoC5/ErikaOS_cortex_mx_ee_context.inc ****  * combination.
  17:Generated_Source\PSoC5/ErikaOS_cortex_mx_ee_context.inc ****  *
  18:Generated_Source\PSoC5/ErikaOS_cortex_mx_ee_context.inc ****  * As a special exception, the copyright holders of this library give you
  19:Generated_Source\PSoC5/ErikaOS_cortex_mx_ee_context.inc ****  * permission to link this code with independent modules to produce an
  20:Generated_Source\PSoC5/ErikaOS_cortex_mx_ee_context.inc ****  * executable, regardless of the license terms of these independent
  21:Generated_Source\PSoC5/ErikaOS_cortex_mx_ee_context.inc ****  * modules, and to copy and distribute the resulting executable under
  22:Generated_Source\PSoC5/ErikaOS_cortex_mx_ee_context.inc ****  * terms of your choice, provided that you also meet, for each linked
  23:Generated_Source\PSoC5/ErikaOS_cortex_mx_ee_context.inc ****  * independent module, the terms and conditions of the license of that
  24:Generated_Source\PSoC5/ErikaOS_cortex_mx_ee_context.inc ****  * module.  An independent module is a module which is not derived from
  25:Generated_Source\PSoC5/ErikaOS_cortex_mx_ee_context.inc ****  * or based on this library.  If you modify this code, you may extend
  26:Generated_Source\PSoC5/ErikaOS_cortex_mx_ee_context.inc ****  * this exception to your version of the code, but you are not
  27:Generated_Source\PSoC5/ErikaOS_cortex_mx_ee_context.inc ****  * obligated to do so.  If you do not wish to do so, delete this
  28:Generated_Source\PSoC5/ErikaOS_cortex_mx_ee_context.inc ****  * exception statement from your version.
  29:Generated_Source\PSoC5/ErikaOS_cortex_mx_ee_context.inc ****  *
  30:Generated_Source\PSoC5/ErikaOS_cortex_mx_ee_context.inc ****  * ERIKA Enterprise is distributed in the hope that it will be
  31:Generated_Source\PSoC5/ErikaOS_cortex_mx_ee_context.inc ****  * useful, but WITHOUT ANY WARRANTY; without even the implied warranty
  32:Generated_Source\PSoC5/ErikaOS_cortex_mx_ee_context.inc ****  * of MERCHANTABILITY or FITNESS FOR A PARTICULAR PURPOSE.  See the
  33:Generated_Source\PSoC5/ErikaOS_cortex_mx_ee_context.inc ****  * GNU General Public License version 2 for more details.
  34:Generated_Source\PSoC5/ErikaOS_cortex_mx_ee_context.inc ****  *
  35:Generated_Source\PSoC5/ErikaOS_cortex_mx_ee_context.inc ****  * You should have received a copy of the GNU General Public License
  36:Generated_Source\PSoC5/ErikaOS_cortex_mx_ee_context.inc ****  * version 2 along with ERIKA Enterprise; if not, write to the
  37:Generated_Source\PSoC5/ErikaOS_cortex_mx_ee_context.inc ****  * Free Software Foundation, Inc., 51 Franklin Street, Fifth Floor,
  38:Generated_Source\PSoC5/ErikaOS_cortex_mx_ee_context.inc ****  * Boston, MA 02110-1301 USA.
  39:Generated_Source\PSoC5/ErikaOS_cortex_mx_ee_context.inc ****  * ###*E*### */
  40:Generated_Source\PSoC5/ErikaOS_cortex_mx_ee_context.inc **** 
  41:Generated_Source\PSoC5/ErikaOS_cortex_mx_ee_context.inc **** /** 
  42:Generated_Source\PSoC5/ErikaOS_cortex_mx_ee_context.inc **** 	@file ee_internal.h
  43:Generated_Source\PSoC5/ErikaOS_cortex_mx_ee_context.inc **** 	@brief Derived from cpu/common/inc/ee_internal.h
  44:Generated_Source\PSoC5/ErikaOS_cortex_mx_ee_context.inc **** 	@author Gianluca Franchino
  45:Generated_Source\PSoC5/ErikaOS_cortex_mx_ee_context.inc **** 	@author Giuseppe Serano
  46:Generated_Source\PSoC5/ErikaOS_cortex_mx_ee_context.inc **** 	@date 2011
  47:Generated_Source\PSoC5/ErikaOS_cortex_mx_ee_context.inc **** */  
  48:Generated_Source\PSoC5/ErikaOS_cortex_mx_ee_context.inc ****     
  49:Generated_Source\PSoC5/ErikaOS_cortex_mx_ee_context.inc **** /*
  50:Generated_Source\PSoC5/ErikaOS_cortex_mx_ee_context.inc ****  * PSoC Port and API Generation
  51:Generated_Source\PSoC5/ErikaOS_cortex_mx_ee_context.inc ****  * Carlos Fernando Meier Martinez
  52:Generated_Source\PSoC5/ErikaOS_cortex_mx_ee_context.inc ****  * Hochschule Darmstadt, Germany. 2017.
  53:Generated_Source\PSoC5/ErikaOS_cortex_mx_ee_context.inc ****  */
  54:Generated_Source\PSoC5/ErikaOS_cortex_mx_ee_context.inc **** 
  55:Generated_Source\PSoC5/ErikaOS_cortex_mx_ee_context.inc **** #ifndef __INCLUDE_CPU_CORTEX_MX_EE_CONTEXT__
ARM GAS  C:\Users\agila\AppData\Local\Temp\cck4bOkV.s 			page 33


  56:Generated_Source\PSoC5/ErikaOS_cortex_mx_ee_context.inc **** #define __INCLUDE_CPU_CORTEX_MX_EE_CONTEXT__
  57:Generated_Source\PSoC5/ErikaOS_cortex_mx_ee_context.inc **** 
  58:Generated_Source\PSoC5/ErikaOS_cortex_mx_ee_context.inc **** /*
  59:Generated_Source\PSoC5/ErikaOS_cortex_mx_ee_context.inc ****  * Instructions
  60:Generated_Source\PSoC5/ErikaOS_cortex_mx_ee_context.inc ****  *
  61:Generated_Source\PSoC5/ErikaOS_cortex_mx_ee_context.inc ****  * The monostack part is complete (obviously, the functions to disable/enable
  62:Generated_Source\PSoC5/ErikaOS_cortex_mx_ee_context.inc ****  *  interrupts are not included here).  For the multistack part you have to
  63:Generated_Source\PSoC5/ErikaOS_cortex_mx_ee_context.inc ****  *  provide two additional things:
  64:Generated_Source\PSoC5/ErikaOS_cortex_mx_ee_context.inc ****  *  1. An assembly implementation of EE_std_change_context_multi(); see below.
  65:Generated_Source\PSoC5/ErikaOS_cortex_mx_ee_context.inc ****  *  2. A #define directive for EE_hal_active_tos, which is just an alias for the
  66:Generated_Source\PSoC5/ErikaOS_cortex_mx_ee_context.inc ****  *  actual architecture-dependent variable.  This variable contains the index of
  67:Generated_Source\PSoC5/ErikaOS_cortex_mx_ee_context.inc ****  *  the current stack.
  68:Generated_Source\PSoC5/ErikaOS_cortex_mx_ee_context.inc ****  */
  69:Generated_Source\PSoC5/ErikaOS_cortex_mx_ee_context.inc **** 
  70:Generated_Source\PSoC5/ErikaOS_cortex_mx_ee_context.inc **** /* After a task terminates, the scheduler puts the id of the new task to launch
  71:Generated_Source\PSoC5/ErikaOS_cortex_mx_ee_context.inc ****  * or switch to in this variable.  If the is stacked, its id is marked so. */
  72:Generated_Source\PSoC5/ErikaOS_cortex_mx_ee_context.inc **** extern EE_TID EE_std_endcycle_next_tid;
  73:Generated_Source\PSoC5/ErikaOS_cortex_mx_ee_context.inc **** 
  74:Generated_Source\PSoC5/ErikaOS_cortex_mx_ee_context.inc **** /* The multistack version must be implemented in ASM; no standard
  75:Generated_Source\PSoC5/ErikaOS_cortex_mx_ee_context.inc ****  * implementation, sorry.  This is the only function that performs context
  76:Generated_Source\PSoC5/ErikaOS_cortex_mx_ee_context.inc ****  * switching.  The multistack version doesn't jump to the task body if its TID
  77:Generated_Source\PSoC5/ErikaOS_cortex_mx_ee_context.inc ****  * has been maked as stacked.  This is used to switch to a task that has been
  78:Generated_Source\PSoC5/ErikaOS_cortex_mx_ee_context.inc ****  * suspend by a previous call to EE_std_change_contex(). */
  79:Generated_Source\PSoC5/ErikaOS_cortex_mx_ee_context.inc **** void EE_cortex_mx_change_context(EE_TID tid);
  80:Generated_Source\PSoC5/ErikaOS_cortex_mx_ee_context.inc **** /* Pseudo code for EE_std_change_context_multi():
  81:Generated_Source\PSoC5/ErikaOS_cortex_mx_ee_context.inc ****      begin:
  82:Generated_Source\PSoC5/ErikaOS_cortex_mx_ee_context.inc ****       tos_index = EE_std_thread_tos[tid+1];
  83:Generated_Source\PSoC5/ErikaOS_cortex_mx_ee_context.inc ****       if is_not_the_current_stack(tos_index) {
  84:Generated_Source\PSoC5/ErikaOS_cortex_mx_ee_context.inc ****           save_caller_saved_registers();
  85:Generated_Source\PSoC5/ErikaOS_cortex_mx_ee_context.inc ****           switch_stacks(tos_index);
  86:Generated_Source\PSoC5/ErikaOS_cortex_mx_ee_context.inc ****           restore_caller_saved_registers();
  87:Generated_Source\PSoC5/ErikaOS_cortex_mx_ee_context.inc ****       }
  88:Generated_Source\PSoC5/ErikaOS_cortex_mx_ee_context.inc ****       if (is_not_marked_stacked(tid)) {
  89:Generated_Source\PSoC5/ErikaOS_cortex_mx_ee_context.inc ****           tid = EE_std_run_task_code(tid);
  90:Generated_Source\PSoC5/ErikaOS_cortex_mx_ee_context.inc ****           goto begin;
  91:Generated_Source\PSoC5/ErikaOS_cortex_mx_ee_context.inc ****       }
  92:Generated_Source\PSoC5/ErikaOS_cortex_mx_ee_context.inc **** 
  93:Generated_Source\PSoC5/ErikaOS_cortex_mx_ee_context.inc ****       Please notice that the "goto begin" is actually a recursive call to
  94:Generated_Source\PSoC5/ErikaOS_cortex_mx_ee_context.inc ****       EE_std_change_context_multi(), but in this way there is no stack growing.
  95:Generated_Source\PSoC5/ErikaOS_cortex_mx_ee_context.inc ****       
  96:Generated_Source\PSoC5/ErikaOS_cortex_mx_ee_context.inc ****       Please notice also that 'tid' must NOT be saved onto the stack before
  97:Generated_Source\PSoC5/ErikaOS_cortex_mx_ee_context.inc ****       switching stacks, otherwise when switching from another stack back to the
  98:Generated_Source\PSoC5/ErikaOS_cortex_mx_ee_context.inc ****       current one, you would overwrite its value.
  99:Generated_Source\PSoC5/ErikaOS_cortex_mx_ee_context.inc **** 
 100:Generated_Source\PSoC5/ErikaOS_cortex_mx_ee_context.inc ****       For processors where the return address is saved in a register, that
 101:Generated_Source\PSoC5/ErikaOS_cortex_mx_ee_context.inc ****       register must be saved in the stack too.
 102:Generated_Source\PSoC5/ErikaOS_cortex_mx_ee_context.inc **** 
 103:Generated_Source\PSoC5/ErikaOS_cortex_mx_ee_context.inc ****       switch_stacks() should also update EE_hal_active_tos.
 104:Generated_Source\PSoC5/ErikaOS_cortex_mx_ee_context.inc **** */
 105:Generated_Source\PSoC5/ErikaOS_cortex_mx_ee_context.inc **** 
 106:Generated_Source\PSoC5/ErikaOS_cortex_mx_ee_context.inc **** /* Call a the body of a task */
 107:Generated_Source\PSoC5/ErikaOS_cortex_mx_ee_context.inc **** #if defined(__OO_BCC1__) || defined(__OO_BCC2__) || \
 108:Generated_Source\PSoC5/ErikaOS_cortex_mx_ee_context.inc ****  defined(__OO_ECC1__) || defined(__OO_ECC2__)
 109:Generated_Source\PSoC5/ErikaOS_cortex_mx_ee_context.inc **** #define EE_call_task_body(tid)  EE_oo_thread_stub()
 110:Generated_Source\PSoC5/ErikaOS_cortex_mx_ee_context.inc **** #else
 111:Generated_Source\PSoC5/ErikaOS_cortex_mx_ee_context.inc **** #define EE_call_task_body(tid)  (((void (*)(void))EE_hal_thread_body[tid])())
 112:Generated_Source\PSoC5/ErikaOS_cortex_mx_ee_context.inc **** #endif
ARM GAS  C:\Users\agila\AppData\Local\Temp\cck4bOkV.s 			page 34


 113:Generated_Source\PSoC5/ErikaOS_cortex_mx_ee_context.inc **** 
 114:Generated_Source\PSoC5/ErikaOS_cortex_mx_ee_context.inc **** 
 115:Generated_Source\PSoC5/ErikaOS_cortex_mx_ee_context.inc **** /* Launch a new task, possibly switching to a different stack, clean up the task
 116:Generated_Source\PSoC5/ErikaOS_cortex_mx_ee_context.inc ****  * after it ends, and call the scheduler (and switch to other tasks/stacks)
 117:Generated_Source\PSoC5/ErikaOS_cortex_mx_ee_context.inc ****  * until there are no more tasks to switch to.  In the multistack version, also
 118:Generated_Source\PSoC5/ErikaOS_cortex_mx_ee_context.inc ****  * change the current stack before returning if the scheduler asks for it. */
 119:Generated_Source\PSoC5/ErikaOS_cortex_mx_ee_context.inc **** __DECLARE_INLINE__ void EE_hal_ready2stacked(EE_TID tid);
 120:Generated_Source\PSoC5/ErikaOS_cortex_mx_ee_context.inc **** 
 121:Generated_Source\PSoC5/ErikaOS_cortex_mx_ee_context.inc **** 
 122:Generated_Source\PSoC5/ErikaOS_cortex_mx_ee_context.inc **** /* Launch a new task on the current stack, clean up the task after it ends, and
 123:Generated_Source\PSoC5/ErikaOS_cortex_mx_ee_context.inc ****  * call the scheduler.  Return the next task to launch, which is "marked as
 124:Generated_Source\PSoC5/ErikaOS_cortex_mx_ee_context.inc ****  * stacked" if there is no new task to launch. */
 125:Generated_Source\PSoC5/ErikaOS_cortex_mx_ee_context.inc **** EE_TID EE_std_run_task_code(EE_TID tid);
 126:Generated_Source\PSoC5/ErikaOS_cortex_mx_ee_context.inc **** 
 127:Generated_Source\PSoC5/ErikaOS_cortex_mx_ee_context.inc **** 
 128:Generated_Source\PSoC5/ErikaOS_cortex_mx_ee_context.inc **** /*
 129:Generated_Source\PSoC5/ErikaOS_cortex_mx_ee_context.inc ****  * Inline implementations
 130:Generated_Source\PSoC5/ErikaOS_cortex_mx_ee_context.inc ****  */
 131:Generated_Source\PSoC5/ErikaOS_cortex_mx_ee_context.inc **** 
 132:Generated_Source\PSoC5/ErikaOS_cortex_mx_ee_context.inc **** 
 133:Generated_Source\PSoC5/ErikaOS_cortex_mx_ee_context.inc **** #ifdef __MONO__
 134:Generated_Source\PSoC5/ErikaOS_cortex_mx_ee_context.inc **** 
 135:Generated_Source\PSoC5/ErikaOS_cortex_mx_ee_context.inc **** /* With monostack, we need only the information that the task is stacked.  We
 136:Generated_Source\PSoC5/ErikaOS_cortex_mx_ee_context.inc ****  * don't need to know which task it is, as there is no new stack to switch
 137:Generated_Source\PSoC5/ErikaOS_cortex_mx_ee_context.inc ****  * to. */
 138:Generated_Source\PSoC5/ErikaOS_cortex_mx_ee_context.inc **** #define EE_std_mark_tid_stacked(tid) ((EE_TID)-1)
 139:Generated_Source\PSoC5/ErikaOS_cortex_mx_ee_context.inc **** 
 140:Generated_Source\PSoC5/ErikaOS_cortex_mx_ee_context.inc **** #define EE_std_need_context_change(tid) ((tid) >= 0)
 141:Generated_Source\PSoC5/ErikaOS_cortex_mx_ee_context.inc **** 
 142:Generated_Source\PSoC5/ErikaOS_cortex_mx_ee_context.inc **** #endif /* __MONO__ */
 143:Generated_Source\PSoC5/ErikaOS_cortex_mx_ee_context.inc **** 
 144:Generated_Source\PSoC5/ErikaOS_cortex_mx_ee_context.inc **** 
 145:Generated_Source\PSoC5/ErikaOS_cortex_mx_ee_context.inc **** #ifdef __MULTI__
 146:Generated_Source\PSoC5/ErikaOS_cortex_mx_ee_context.inc **** 
 147:Generated_Source\PSoC5/ErikaOS_cortex_mx_ee_context.inc **** /* TID_IS_STACKED_MARK must set the most significative bit */
 148:Generated_Source\PSoC5/ErikaOS_cortex_mx_ee_context.inc **** #define EE_std_mark_tid_stacked(tid) ((tid) | (EE_TID)TID_IS_STACKED_MARK)
 149:Generated_Source\PSoC5/ErikaOS_cortex_mx_ee_context.inc **** 
 150:Generated_Source\PSoC5/ErikaOS_cortex_mx_ee_context.inc **** extern int EE_std_need_context_change(EE_TID tid);
 151:Generated_Source\PSoC5/ErikaOS_cortex_mx_ee_context.inc **** 
 152:Generated_Source\PSoC5/ErikaOS_cortex_mx_ee_context.inc **** __INLINE__ void  EE_hal_stkchange(EE_TID tid)
 153:Generated_Source\PSoC5/ErikaOS_cortex_mx_ee_context.inc **** {
 154:Generated_Source\PSoC5/ErikaOS_cortex_mx_ee_context.inc ****     EE_cortex_mx_change_context(EE_std_mark_tid_stacked(tid));
 262              		.loc 6 154 0
 263 00fa 40F00040 		orr	r0, r0, #-2147483648
 264              	.LVL13:
 265 00fe FFF7FEFF 		bl	EE_cortex_mx_change_context
 266              	.LVL14:
 267              	.LBE115:
 268              	.LBE114:
 269              	.LBE113:
 270              	.LBE112:
 271              	.LBE109:
 272              	.LBE108:
 215:Generated_Source\PSoC5/ErikaOS_ee_ulockres.c ****       /* we are inside a task */
 216:Generated_Source\PSoC5/ErikaOS_ee_ulockres.c ****       EE_oo_preemption_point();
 217:Generated_Source\PSoC5/ErikaOS_ee_ulockres.c ****     }
 218:Generated_Source\PSoC5/ErikaOS_ee_ulockres.c ****     ev = E_OK;
ARM GAS  C:\Users\agila\AppData\Local\Temp\cck4bOkV.s 			page 35


 273              		.loc 1 218 0
 274 0102 2046     		mov	r0, r4
 275 0104 14E0     		b	.L4
 276              	.LVL15:
 277              	.L9:
 278              	.LBB121:
 279              	.LBB120:
 280              	.LBB119:
 281              	.LBB118:
 282              	.LBB116:
 283              	.LBB117:
 155:Generated_Source\PSoC5/ErikaOS_cortex_mx_ee_context.inc **** }
 156:Generated_Source\PSoC5/ErikaOS_cortex_mx_ee_context.inc **** 
 157:Generated_Source\PSoC5/ErikaOS_cortex_mx_ee_context.inc **** #endif /* __MULTI__ */
 158:Generated_Source\PSoC5/ErikaOS_cortex_mx_ee_context.inc **** 
 159:Generated_Source\PSoC5/ErikaOS_cortex_mx_ee_context.inc **** 
 160:Generated_Source\PSoC5/ErikaOS_cortex_mx_ee_context.inc **** /* The functions below should work for both the monostack and multistack
 161:Generated_Source\PSoC5/ErikaOS_cortex_mx_ee_context.inc ****  * versions of the kernel, thanks to the macros defined above.  In the mono
 162:Generated_Source\PSoC5/ErikaOS_cortex_mx_ee_context.inc ****  * version, all the stack-related stuff is ignored. */
 163:Generated_Source\PSoC5/ErikaOS_cortex_mx_ee_context.inc **** 
 164:Generated_Source\PSoC5/ErikaOS_cortex_mx_ee_context.inc **** 
 165:Generated_Source\PSoC5/ErikaOS_cortex_mx_ee_context.inc **** __INLINE__ void  EE_hal_ready2stacked(EE_TID tid)
 166:Generated_Source\PSoC5/ErikaOS_cortex_mx_ee_context.inc **** {
 167:Generated_Source\PSoC5/ErikaOS_cortex_mx_ee_context.inc ****     EE_cortex_mx_change_context(tid);
 284              		.loc 6 167 0
 285 0106 FFF7FEFF 		bl	EE_cortex_mx_change_context
 286              	.LVL16:
 287              	.LBE117:
 288              	.LBE116:
 289              	.LBE118:
 290              	.LBE119:
 291              	.LBE120:
 292              	.LBE121:
 293              		.loc 1 218 0
 294 010a 0020     		movs	r0, #0
 295 010c 10E0     		b	.L4
 296              	.LVL17:
 297              	.L11:
 143:Generated_Source\PSoC5/ErikaOS_ee_ulockres.c ****   } else
 298              		.loc 1 143 0
 299 010e 0320     		movs	r0, #3
 300              	.LVL18:
 301 0110 0EE0     		b	.L4
 302              	.LVL19:
 303              	.L12:
 151:Generated_Source\PSoC5/ErikaOS_ee_ulockres.c ****   } else if ( (inside_task != EE_FALSE) && ((current == EE_NIL) ||
 304              		.loc 1 151 0
 305 0112 0520     		movs	r0, #5
 306              	.LVL20:
 307 0114 0CE0     		b	.L4
 308              	.LVL21:
 309              	.L13:
 310 0116 0520     		movs	r0, #5
 311              	.LVL22:
 312 0118 0AE0     		b	.L4
 313              	.LVL23:
 314              	.L14:
ARM GAS  C:\Users\agila\AppData\Local\Temp\cck4bOkV.s 			page 36


 154:Generated_Source\PSoC5/ErikaOS_ee_ulockres.c ****   } else
 315              		.loc 1 154 0
 316 011a 0120     		movs	r0, #1
 317              	.LVL24:
 318 011c 08E0     		b	.L4
 319              	.LVL25:
 320              	.L15:
 321 011e 0120     		movs	r0, #1
 322              	.LVL26:
 323 0120 06E0     		b	.L4
 324              	.LVL27:
 325              	.L19:
 163:Generated_Source\PSoC5/ErikaOS_ee_ulockres.c ****   } else
 326              		.loc 1 163 0
 327 0122 0120     		movs	r0, #1
 328              	.LVL28:
 329 0124 04E0     		b	.L4
 330              	.LVL29:
 331              	.L20:
 332              		.loc 1 218 0
 333 0126 0020     		movs	r0, #0
 334              	.LVL30:
 335 0128 02E0     		b	.L4
 336              	.LVL31:
 337              	.L21:
 338 012a 0020     		movs	r0, #0
 339              	.LVL32:
 340 012c 00E0     		b	.L4
 341              	.LVL33:
 342              	.L22:
 343 012e 0020     		movs	r0, #0
 344              	.LVL34:
 345              	.L4:
 346              	.LBB122:
 347              	.LBB123:
 348              	.LBB124:
 232:Generated_Source\PSoC5/ErikaOS_cortex_mx_ee_cpu.inc **** #endif	/* !__KEIL__ */
 349              		.loc 4 232 0
 350              		.syntax unified
 351              	@ 232 "Generated_Source\PSoC5\ErikaOS_cortex_mx_ee_cpu.inc" 1
 352 0130 85F31088 		msr primask, r5
 353              	@ 0 "" 2
 354              	.LVL35:
 355              		.thumb
 356              		.syntax unified
 357              	.LBE124:
 358              	.LBE123:
 359              	.LBE122:
 219:Generated_Source\PSoC5/ErikaOS_ee_ulockres.c ****   }
 220:Generated_Source\PSoC5/ErikaOS_ee_ulockres.c **** 
 221:Generated_Source\PSoC5/ErikaOS_ee_ulockres.c ****   if ( ev != E_OK ) {
 222:Generated_Source\PSoC5/ErikaOS_ee_ulockres.c ****     EE_ORTI_set_lasterror(ev);
 223:Generated_Source\PSoC5/ErikaOS_ee_ulockres.c ****     EE_oo_notify_error_ReleaseResource(ResID, ev);
 224:Generated_Source\PSoC5/ErikaOS_ee_ulockres.c ****   }
 225:Generated_Source\PSoC5/ErikaOS_ee_ulockres.c **** 
 226:Generated_Source\PSoC5/ErikaOS_ee_ulockres.c ****   EE_ORTI_set_service_out(EE_SERVICETRACE_RELEASERESOURCE);
 227:Generated_Source\PSoC5/ErikaOS_ee_ulockres.c ****   EE_OS_EXIT_CRITICAL_SECTION();
ARM GAS  C:\Users\agila\AppData\Local\Temp\cck4bOkV.s 			page 37


 228:Generated_Source\PSoC5/ErikaOS_ee_ulockres.c **** 
 229:Generated_Source\PSoC5/ErikaOS_ee_ulockres.c **** 
 230:Generated_Source\PSoC5/ErikaOS_ee_ulockres.c ****   return ev;
 231:Generated_Source\PSoC5/ErikaOS_ee_ulockres.c **** }
 360              		.loc 1 231 0
 361 0134 70BD     		pop	{r4, r5, r6, pc}
 362              	.LVL36:
 363              	.L25:
 364 0136 00BF     		.align	2
 365              	.L24:
 366 0138 00000000 		.word	EE_stkfirst
 367 013c 00000000 		.word	EE_IRQ_nesting_level
 368 0140 00000000 		.word	EE_isr2_index
 369 0144 00000000 		.word	EE_resource_locked
 370 0148 00000000 		.word	EE_th_resource_last
 371 014c 00000000 		.word	EE_th_ready_prio
 372 0150 00000000 		.word	EE_resource_ceiling
 373 0154 00000000 		.word	EE_resource_isr2_priority
 374 0158 00000000 		.word	EE_isr2_oldpriority
 375 015c 00000000 		.word	EE_resource_stack
 376 0160 00000000 		.word	EE_resource_oldceiling
 377 0164 00000000 		.word	EE_sys_ceiling
 378 0168 00000000 		.word	EE_th_status
 379 016c 00000000 		.word	EE_th_dispatch_prio
 380 0170 00000000 		.word	EE_th_waswaiting
 381              		.cfi_endproc
 382              	.LFE71:
 383              		.size	EE_oo_ReleaseResource, .-EE_oo_ReleaseResource
 384              		.text
 385              	.Letext0:
 386              		.file 7 "Generated_Source\\PSoC5\\ErikaOS_common_ee_types.inc"
 387              		.file 8 "Generated_Source\\PSoC5\\ErikaOS_ee_oo_common.inc"
 388              		.file 9 "Generated_Source\\PSoC5\\ErikaOS_ee_as_internal.inc"
 389              		.file 10 "Generated_Source\\PSoC5\\ErikaOS_ee_oo_intfunc.inc"