ARM GAS  C:\Users\agila\AppData\Local\Temp\cccLUxJg.s 			page 1


   1              		.syntax unified
   2              		.cpu cortex-m3
   3              		.fpu softvfp
   4              		.eabi_attribute 20, 1
   5              		.eabi_attribute 21, 1
   6              		.eabi_attribute 23, 3
   7              		.eabi_attribute 24, 1
   8              		.eabi_attribute 25, 1
   9              		.eabi_attribute 26, 1
  10              		.eabi_attribute 30, 1
  11              		.eabi_attribute 34, 1
  12              		.eabi_attribute 18, 4
  13              		.thumb
  14              		.syntax unified
  15              		.file	"ErikaOS_ee_lockres.c"
  16              		.text
  17              	.Ltext0:
  18              		.cfi_sections	.debug_frame
  19              		.section	.text.EE_oo_GetResource,"ax",%progbits
  20              		.align	2
  21              		.global	EE_oo_GetResource
  22              		.thumb
  23              		.thumb_func
  24              		.type	EE_oo_GetResource, %function
  25              	EE_oo_GetResource:
  26              	.LFB71:
  27              		.file 1 "Generated_Source\\PSoC5\\ErikaOS_ee_lockres.c"
   1:Generated_Source\PSoC5/ErikaOS_ee_lockres.c **** /* ###*B*###
   2:Generated_Source\PSoC5/ErikaOS_ee_lockres.c ****  * ERIKA Enterprise - a tiny RTOS for small microcontrollers
   3:Generated_Source\PSoC5/ErikaOS_ee_lockres.c ****  *
   4:Generated_Source\PSoC5/ErikaOS_ee_lockres.c ****  * Copyright (C) 2002-2008  Evidence Srl
   5:Generated_Source\PSoC5/ErikaOS_ee_lockres.c ****  *
   6:Generated_Source\PSoC5/ErikaOS_ee_lockres.c ****  * This file is part of ERIKA Enterprise.
   7:Generated_Source\PSoC5/ErikaOS_ee_lockres.c ****  *
   8:Generated_Source\PSoC5/ErikaOS_ee_lockres.c ****  * ERIKA Enterprise is free software; you can redistribute it
   9:Generated_Source\PSoC5/ErikaOS_ee_lockres.c ****  * and/or modify it under the terms of the GNU General Public License
  10:Generated_Source\PSoC5/ErikaOS_ee_lockres.c ****  * version 2 as published by the Free Software Foundation, 
  11:Generated_Source\PSoC5/ErikaOS_ee_lockres.c ****  * (with a special exception described below).
  12:Generated_Source\PSoC5/ErikaOS_ee_lockres.c ****  *
  13:Generated_Source\PSoC5/ErikaOS_ee_lockres.c ****  * Linking this code statically or dynamically with other modules is
  14:Generated_Source\PSoC5/ErikaOS_ee_lockres.c ****  * making a combined work based on this code.  Thus, the terms and
  15:Generated_Source\PSoC5/ErikaOS_ee_lockres.c ****  * conditions of the GNU General Public License cover the whole
  16:Generated_Source\PSoC5/ErikaOS_ee_lockres.c ****  * combination.
  17:Generated_Source\PSoC5/ErikaOS_ee_lockres.c ****  *
  18:Generated_Source\PSoC5/ErikaOS_ee_lockres.c ****  * As a special exception, the copyright holders of this library give you
  19:Generated_Source\PSoC5/ErikaOS_ee_lockres.c ****  * permission to link this code with independent modules to produce an
  20:Generated_Source\PSoC5/ErikaOS_ee_lockres.c ****  * executable, regardless of the license terms of these independent
  21:Generated_Source\PSoC5/ErikaOS_ee_lockres.c ****  * modules, and to copy and distribute the resulting executable under
  22:Generated_Source\PSoC5/ErikaOS_ee_lockres.c ****  * terms of your choice, provided that you also meet, for each linked
  23:Generated_Source\PSoC5/ErikaOS_ee_lockres.c ****  * independent module, the terms and conditions of the license of that
  24:Generated_Source\PSoC5/ErikaOS_ee_lockres.c ****  * module.  An independent module is a module which is not derived from
  25:Generated_Source\PSoC5/ErikaOS_ee_lockres.c ****  * or based on this library.  If you modify this code, you may extend
  26:Generated_Source\PSoC5/ErikaOS_ee_lockres.c ****  * this exception to your version of the code, but you are not
  27:Generated_Source\PSoC5/ErikaOS_ee_lockres.c ****  * obligated to do so.  If you do not wish to do so, delete this
  28:Generated_Source\PSoC5/ErikaOS_ee_lockres.c ****  * exception statement from your version.
  29:Generated_Source\PSoC5/ErikaOS_ee_lockres.c ****  *
  30:Generated_Source\PSoC5/ErikaOS_ee_lockres.c ****  * ERIKA Enterprise is distributed in the hope that it will be
ARM GAS  C:\Users\agila\AppData\Local\Temp\cccLUxJg.s 			page 2


  31:Generated_Source\PSoC5/ErikaOS_ee_lockres.c ****  * useful, but WITHOUT ANY WARRANTY; without even the implied warranty
  32:Generated_Source\PSoC5/ErikaOS_ee_lockres.c ****  * of MERCHANTABILITY or FITNESS FOR A PARTICULAR PURPOSE.  See the
  33:Generated_Source\PSoC5/ErikaOS_ee_lockres.c ****  * GNU General Public License version 2 for more details.
  34:Generated_Source\PSoC5/ErikaOS_ee_lockres.c ****  *
  35:Generated_Source\PSoC5/ErikaOS_ee_lockres.c ****  * You should have received a copy of the GNU General Public License
  36:Generated_Source\PSoC5/ErikaOS_ee_lockres.c ****  * version 2 along with ERIKA Enterprise; if not, write to the
  37:Generated_Source\PSoC5/ErikaOS_ee_lockres.c ****  * Free Software Foundation, Inc., 51 Franklin Street, Fifth Floor,
  38:Generated_Source\PSoC5/ErikaOS_ee_lockres.c ****  * Boston, MA 02110-1301 USA.
  39:Generated_Source\PSoC5/ErikaOS_ee_lockres.c ****  * ###*E*### */
  40:Generated_Source\PSoC5/ErikaOS_ee_lockres.c **** 
  41:Generated_Source\PSoC5/ErikaOS_ee_lockres.c **** /*
  42:Generated_Source\PSoC5/ErikaOS_ee_lockres.c ****  * Author: 2002 Paolo Gai
  43:Generated_Source\PSoC5/ErikaOS_ee_lockres.c ****  * CVS: $Id: ee_lockres.c,v 1.2 2006/02/08 11:37:31 pj Exp $
  44:Generated_Source\PSoC5/ErikaOS_ee_lockres.c ****  */
  45:Generated_Source\PSoC5/ErikaOS_ee_lockres.c **** 
  46:Generated_Source\PSoC5/ErikaOS_ee_lockres.c **** /*
  47:Generated_Source\PSoC5/ErikaOS_ee_lockres.c ****  * PSoC Port and API Generation
  48:Generated_Source\PSoC5/ErikaOS_ee_lockres.c ****  * Carlos Fernando Meier Martinez
  49:Generated_Source\PSoC5/ErikaOS_ee_lockres.c ****  * Hochschule Darmstadt, Germany. 2017.
  50:Generated_Source\PSoC5/ErikaOS_ee_lockres.c ****  */
  51:Generated_Source\PSoC5/ErikaOS_ee_lockres.c **** #include "ErikaOS_ee_tracing.h"
  52:Generated_Source\PSoC5/ErikaOS_ee_lockres.c **** 
  53:Generated_Source\PSoC5/ErikaOS_ee_lockres.c **** #include "ErikaOS_ee_internal.inc"
  54:Generated_Source\PSoC5/ErikaOS_ee_lockres.c **** 
  55:Generated_Source\PSoC5/ErikaOS_ee_lockres.c **** #if (__OO_configUSE_TRACE_FACILITY == 1)
  56:Generated_Source\PSoC5/ErikaOS_ee_lockres.c **** #include "trcKernelPort.h"
  57:Generated_Source\PSoC5/ErikaOS_ee_lockres.c **** #endif
  58:Generated_Source\PSoC5/ErikaOS_ee_lockres.c **** 
  59:Generated_Source\PSoC5/ErikaOS_ee_lockres.c **** #if (defined(__OO_BCC1__) || defined(__OO_BCC2__) || defined(__OO_ECC1__) || defined(__OO_ECC2__)) 
  60:Generated_Source\PSoC5/ErikaOS_ee_lockres.c **** 
  61:Generated_Source\PSoC5/ErikaOS_ee_lockres.c **** #if (defined(RTDRUID_CONFIGURATOR_NUMBER))				\
  62:Generated_Source\PSoC5/ErikaOS_ee_lockres.c ****  && (RTDRUID_CONFIGURATOR_NUMBER >= RTDRUID_CONFNUM_NO_ORTI_VARS)
  63:Generated_Source\PSoC5/ErikaOS_ee_lockres.c **** 
  64:Generated_Source\PSoC5/ErikaOS_ee_lockres.c **** /* ORTI variables */
  65:Generated_Source\PSoC5/ErikaOS_ee_lockres.c **** 
  66:Generated_Source\PSoC5/ErikaOS_ee_lockres.c **** #ifdef __OO_ORTI_PRIORITY__
  67:Generated_Source\PSoC5/ErikaOS_ee_lockres.c **** EE_TYPEPRIO EE_ORTI_resource_oldpriority[EE_MAX_RESOURCE];
  68:Generated_Source\PSoC5/ErikaOS_ee_lockres.c **** #endif /* __OO_ORTI_PRIORITY__ */
  69:Generated_Source\PSoC5/ErikaOS_ee_lockres.c **** 
  70:Generated_Source\PSoC5/ErikaOS_ee_lockres.c **** #ifdef __OO_ORTI_RES_LOCKER_TASK__
  71:Generated_Source\PSoC5/ErikaOS_ee_lockres.c **** static EE_TID EE_ORTI_res_locker[EE_MAX_RESOURCE];
  72:Generated_Source\PSoC5/ErikaOS_ee_lockres.c **** #endif /* __OO_ORTI_RES_LOCKER_TASK__ */
  73:Generated_Source\PSoC5/ErikaOS_ee_lockres.c **** 
  74:Generated_Source\PSoC5/ErikaOS_ee_lockres.c **** #endif /* RTDRUID_CONFIGURATOR_NUMBER */
  75:Generated_Source\PSoC5/ErikaOS_ee_lockres.c **** 
  76:Generated_Source\PSoC5/ErikaOS_ee_lockres.c **** /* GetResource:
  77:Generated_Source\PSoC5/ErikaOS_ee_lockres.c ****    - lock a resource
  78:Generated_Source\PSoC5/ErikaOS_ee_lockres.c ****    - lock/unlock on the same function level
  79:Generated_Source\PSoC5/ErikaOS_ee_lockres.c ****    - no point of rescheduling inside critical sections!!!
  80:Generated_Source\PSoC5/ErikaOS_ee_lockres.c ****    - returns (only extended state)
  81:Generated_Source\PSoC5/ErikaOS_ee_lockres.c ****        E_OS_ID     if resource number is invalid
  82:Generated_Source\PSoC5/ErikaOS_ee_lockres.c ****        E_OS_ACCESS if resource already locked or interrupt routine 
  83:Generated_Source\PSoC5/ErikaOS_ee_lockres.c ****                    greater than the ceiling priority
  84:Generated_Source\PSoC5/ErikaOS_ee_lockres.c **** 
  85:Generated_Source\PSoC5/ErikaOS_ee_lockres.c ****    Extended Status: Count for locked resources!!!!
  86:Generated_Source\PSoC5/ErikaOS_ee_lockres.c **** */
  87:Generated_Source\PSoC5/ErikaOS_ee_lockres.c **** 
ARM GAS  C:\Users\agila\AppData\Local\Temp\cccLUxJg.s 			page 3


  88:Generated_Source\PSoC5/ErikaOS_ee_lockres.c **** #ifndef __PRIVATE_GETRESOURCE__
  89:Generated_Source\PSoC5/ErikaOS_ee_lockres.c **** 
  90:Generated_Source\PSoC5/ErikaOS_ee_lockres.c **** StatusType EE_oo_GetResource( ResourceType ResID )
  91:Generated_Source\PSoC5/ErikaOS_ee_lockres.c **** {
  28              		.loc 1 91 0
  29              		.cfi_startproc
  30              		@ args = 0, pretend = 0, frame = 0
  31              		@ frame_needed = 0, uses_anonymous_args = 0
  32              	.LVL0:
  33 0000 38B5     		push	{r3, r4, r5, lr}
  34              		.cfi_def_cfa_offset 16
  35              		.cfi_offset 3, -16
  36              		.cfi_offset 4, -12
  37              		.cfi_offset 5, -8
  38              		.cfi_offset 14, -4
  39              	.LBB52:
  40              	.LBB53:
  41              		.file 2 "Generated_Source\\PSoC5\\ErikaOS_ee_oo_internal.inc"
   1:Generated_Source\PSoC5/ErikaOS_ee_oo_internal.inc **** /* ###*B*###
   2:Generated_Source\PSoC5/ErikaOS_ee_oo_internal.inc ****  * ERIKA Enterprise - a tiny RTOS for small microcontrollers
   3:Generated_Source\PSoC5/ErikaOS_ee_oo_internal.inc ****  *
   4:Generated_Source\PSoC5/ErikaOS_ee_oo_internal.inc ****  * Copyright (C) 2002-2008  Evidence Srl
   5:Generated_Source\PSoC5/ErikaOS_ee_oo_internal.inc ****  *
   6:Generated_Source\PSoC5/ErikaOS_ee_oo_internal.inc ****  * This file is part of ERIKA Enterprise.
   7:Generated_Source\PSoC5/ErikaOS_ee_oo_internal.inc ****  *
   8:Generated_Source\PSoC5/ErikaOS_ee_oo_internal.inc ****  * ERIKA Enterprise is free software; you can redistribute it
   9:Generated_Source\PSoC5/ErikaOS_ee_oo_internal.inc ****  * and/or modify it under the terms of the GNU General Public License
  10:Generated_Source\PSoC5/ErikaOS_ee_oo_internal.inc ****  * version 2 as published by the Free Software Foundation, 
  11:Generated_Source\PSoC5/ErikaOS_ee_oo_internal.inc ****  * (with a special exception described below).
  12:Generated_Source\PSoC5/ErikaOS_ee_oo_internal.inc ****  *
  13:Generated_Source\PSoC5/ErikaOS_ee_oo_internal.inc ****  * Linking this code statically or dynamically with other modules is
  14:Generated_Source\PSoC5/ErikaOS_ee_oo_internal.inc ****  * making a combined work based on this code.  Thus, the terms and
  15:Generated_Source\PSoC5/ErikaOS_ee_oo_internal.inc ****  * conditions of the GNU General Public License cover the whole
  16:Generated_Source\PSoC5/ErikaOS_ee_oo_internal.inc ****  * combination.
  17:Generated_Source\PSoC5/ErikaOS_ee_oo_internal.inc ****  *
  18:Generated_Source\PSoC5/ErikaOS_ee_oo_internal.inc ****  * As a special exception, the copyright holders of this library give you
  19:Generated_Source\PSoC5/ErikaOS_ee_oo_internal.inc ****  * permission to link this code with independent modules to produce an
  20:Generated_Source\PSoC5/ErikaOS_ee_oo_internal.inc ****  * executable, regardless of the license terms of these independent
  21:Generated_Source\PSoC5/ErikaOS_ee_oo_internal.inc ****  * modules, and to copy and distribute the resulting executable under
  22:Generated_Source\PSoC5/ErikaOS_ee_oo_internal.inc ****  * terms of your choice, provided that you also meet, for each linked
  23:Generated_Source\PSoC5/ErikaOS_ee_oo_internal.inc ****  * independent module, the terms and conditions of the license of that
  24:Generated_Source\PSoC5/ErikaOS_ee_oo_internal.inc ****  * module.  An independent module is a module which is not derived from
  25:Generated_Source\PSoC5/ErikaOS_ee_oo_internal.inc ****  * or based on this library.  If you modify this code, you may extend
  26:Generated_Source\PSoC5/ErikaOS_ee_oo_internal.inc ****  * this exception to your version of the code, but you are not
  27:Generated_Source\PSoC5/ErikaOS_ee_oo_internal.inc ****  * obligated to do so.  If you do not wish to do so, delete this
  28:Generated_Source\PSoC5/ErikaOS_ee_oo_internal.inc ****  * exception statement from your version.
  29:Generated_Source\PSoC5/ErikaOS_ee_oo_internal.inc ****  *
  30:Generated_Source\PSoC5/ErikaOS_ee_oo_internal.inc ****  * ERIKA Enterprise is distributed in the hope that it will be
  31:Generated_Source\PSoC5/ErikaOS_ee_oo_internal.inc ****  * useful, but WITHOUT ANY WARRANTY; without even the implied warranty
  32:Generated_Source\PSoC5/ErikaOS_ee_oo_internal.inc ****  * of MERCHANTABILITY or FITNESS FOR A PARTICULAR PURPOSE.  See the
  33:Generated_Source\PSoC5/ErikaOS_ee_oo_internal.inc ****  * GNU General Public License version 2 for more details.
  34:Generated_Source\PSoC5/ErikaOS_ee_oo_internal.inc ****  *
  35:Generated_Source\PSoC5/ErikaOS_ee_oo_internal.inc ****  * You should have received a copy of the GNU General Public License
  36:Generated_Source\PSoC5/ErikaOS_ee_oo_internal.inc ****  * version 2 along with ERIKA Enterprise; if not, write to the
  37:Generated_Source\PSoC5/ErikaOS_ee_oo_internal.inc ****  * Free Software Foundation, Inc., 51 Franklin Street, Fifth Floor,
  38:Generated_Source\PSoC5/ErikaOS_ee_oo_internal.inc ****  * Boston, MA 02110-1301 USA.
  39:Generated_Source\PSoC5/ErikaOS_ee_oo_internal.inc ****  * ###*E*### */
ARM GAS  C:\Users\agila\AppData\Local\Temp\cccLUxJg.s 			page 4


  40:Generated_Source\PSoC5/ErikaOS_ee_oo_internal.inc **** 
  41:Generated_Source\PSoC5/ErikaOS_ee_oo_internal.inc **** /*
  42:Generated_Source\PSoC5/ErikaOS_ee_oo_internal.inc ****  * Author: 2002 Paolo Gai
  43:Generated_Source\PSoC5/ErikaOS_ee_oo_internal.inc ****  * CVS: $Id: ee_internal.h,v 1.6 2006/12/03 22:07:50 pj Exp $
  44:Generated_Source\PSoC5/ErikaOS_ee_oo_internal.inc ****  */
  45:Generated_Source\PSoC5/ErikaOS_ee_oo_internal.inc **** 
  46:Generated_Source\PSoC5/ErikaOS_ee_oo_internal.inc **** /*
  47:Generated_Source\PSoC5/ErikaOS_ee_oo_internal.inc ****  * PSoC Port and API Generation
  48:Generated_Source\PSoC5/ErikaOS_ee_oo_internal.inc ****  * Carlos Fernando Meier Martinez
  49:Generated_Source\PSoC5/ErikaOS_ee_oo_internal.inc ****  * Hochschule Darmstadt, Germany. 2017.
  50:Generated_Source\PSoC5/ErikaOS_ee_oo_internal.inc ****  */
  51:Generated_Source\PSoC5/ErikaOS_ee_oo_internal.inc **** 
  52:Generated_Source\PSoC5/ErikaOS_ee_oo_internal.inc **** #ifndef PKG_KERNEL_OO_INC_EE_OO_INTERNAL_H
  53:Generated_Source\PSoC5/ErikaOS_ee_oo_internal.inc **** #define PKG_KERNEL_OO_INC_EE_OO_INTERNAL_H
  54:Generated_Source\PSoC5/ErikaOS_ee_oo_internal.inc **** 
  55:Generated_Source\PSoC5/ErikaOS_ee_oo_internal.inc **** #include "ErikaOS_ee_oo_common.inc"
  56:Generated_Source\PSoC5/ErikaOS_ee_oo_internal.inc **** #include "ErikaOS_ee_oo_intfunc.inc"
  57:Generated_Source\PSoC5/ErikaOS_ee_oo_internal.inc **** #include "ErikaOS_ee_oo_irq.inc"
  58:Generated_Source\PSoC5/ErikaOS_ee_oo_internal.inc **** #if (__OO_configUSE_TRACE_FACILITY == 1)
  59:Generated_Source\PSoC5/ErikaOS_ee_oo_internal.inc **** #include "trcKernelPort.h" 
  60:Generated_Source\PSoC5/ErikaOS_ee_oo_internal.inc **** #endif
  61:Generated_Source\PSoC5/ErikaOS_ee_oo_internal.inc **** /*******************************************************************************
  62:Generated_Source\PSoC5/ErikaOS_ee_oo_internal.inc ****  *                    New Error Handling Internal Utilities
  63:Generated_Source\PSoC5/ErikaOS_ee_oo_internal.inc ****  ******************************************************************************/
  64:Generated_Source\PSoC5/ErikaOS_ee_oo_internal.inc **** 
  65:Generated_Source\PSoC5/ErikaOS_ee_oo_internal.inc **** /* Error Parameters Utilities Macros */
  66:Generated_Source\PSoC5/ErikaOS_ee_oo_internal.inc **** #define EE_OS_PARAM(param_name)   EE_os_param param_name
  67:Generated_Source\PSoC5/ErikaOS_ee_oo_internal.inc **** #define EE_OS_PARAM_VALUE(param_name, param_value)  \
  68:Generated_Source\PSoC5/ErikaOS_ee_oo_internal.inc ****   ((param_name).value_param = (param_value))
  69:Generated_Source\PSoC5/ErikaOS_ee_oo_internal.inc **** 
  70:Generated_Source\PSoC5/ErikaOS_ee_oo_internal.inc **** #define EE_OS_PARAM_REF(param_name, param_field, param_ref) \
  71:Generated_Source\PSoC5/ErikaOS_ee_oo_internal.inc ****   ((param_name).param_field = (param_ref))
  72:Generated_Source\PSoC5/ErikaOS_ee_oo_internal.inc **** 
  73:Generated_Source\PSoC5/ErikaOS_ee_oo_internal.inc **** #ifdef __OO_HAS_ERRORHOOK__
  74:Generated_Source\PSoC5/ErikaOS_ee_oo_internal.inc **** /* Error Parameters Data Structure Utilities Macros from user space */
  75:Generated_Source\PSoC5/ErikaOS_ee_oo_internal.inc **** #define EE_OS_ERROR_PARAMETERS()  EE_oo_ErrorHook_parameters error_parameters
  76:Generated_Source\PSoC5/ErikaOS_ee_oo_internal.inc **** 
  77:Generated_Source\PSoC5/ErikaOS_ee_oo_internal.inc **** #define EE_OS_ERROR_PARAMETERS_INIT(param1_in,param2_in,param3_in)  \
  78:Generated_Source\PSoC5/ErikaOS_ee_oo_internal.inc ****   EE_oo_ErrorHook_parameters error_parameters = { param1_in, param2_in, \
  79:Generated_Source\PSoC5/ErikaOS_ee_oo_internal.inc ****     param3_in }
  80:Generated_Source\PSoC5/ErikaOS_ee_oo_internal.inc **** 
  81:Generated_Source\PSoC5/ErikaOS_ee_oo_internal.inc **** #define EE_OS_ERROR_PARAMETERS_PARAM1_VALUE(param1_value) \
  82:Generated_Source\PSoC5/ErikaOS_ee_oo_internal.inc ****   (error_parameters.param1.value_param = param1_value)
  83:Generated_Source\PSoC5/ErikaOS_ee_oo_internal.inc **** #define EE_OS_ERROR_PARAMETERS_PARAM2_VALUE(param2_value) \
  84:Generated_Source\PSoC5/ErikaOS_ee_oo_internal.inc ****   (error_parameters.param2.value_param = param2_value)
  85:Generated_Source\PSoC5/ErikaOS_ee_oo_internal.inc **** #define EE_OS_ERROR_PARAMETERS_PARAM3_VALUE(param3_value) \
  86:Generated_Source\PSoC5/ErikaOS_ee_oo_internal.inc ****   (error_parameters.param3.value_param = param3_value)
  87:Generated_Source\PSoC5/ErikaOS_ee_oo_internal.inc **** 
  88:Generated_Source\PSoC5/ErikaOS_ee_oo_internal.inc **** #define EE_OS_ERROR_PARAMETERS_PARAM1_REF(param_field,param_ref)  \
  89:Generated_Source\PSoC5/ErikaOS_ee_oo_internal.inc ****   (error_parameters.param1.param_field = (param_ref))
  90:Generated_Source\PSoC5/ErikaOS_ee_oo_internal.inc **** #define EE_OS_ERROR_PARAMETERS_PARAM2_REF(param_field,param_ref)  \
  91:Generated_Source\PSoC5/ErikaOS_ee_oo_internal.inc ****   (error_parameters.param2.param_field = (param_ref))
  92:Generated_Source\PSoC5/ErikaOS_ee_oo_internal.inc **** #define EE_OS_ERROR_PARAMETERS_PARAM3_REF(param_field,param_ref)  \
  93:Generated_Source\PSoC5/ErikaOS_ee_oo_internal.inc ****   (error_parameters.param3.param_field = (param_ref))
  94:Generated_Source\PSoC5/ErikaOS_ee_oo_internal.inc **** #else /* __OO_HAS_ERRORHOOK__ */
  95:Generated_Source\PSoC5/ErikaOS_ee_oo_internal.inc **** #define EE_OS_ERROR_PARAMETERS()                                    ((void)0)
  96:Generated_Source\PSoC5/ErikaOS_ee_oo_internal.inc **** 
ARM GAS  C:\Users\agila\AppData\Local\Temp\cccLUxJg.s 			page 5


  97:Generated_Source\PSoC5/ErikaOS_ee_oo_internal.inc **** #define EE_OS_ERROR_PARAMETERS_INIT(param1_in,param2_in,param3_in)  ((void)0)
  98:Generated_Source\PSoC5/ErikaOS_ee_oo_internal.inc **** 
  99:Generated_Source\PSoC5/ErikaOS_ee_oo_internal.inc **** #define EE_OS_ERROR_PARAMETERS_PARAM1_VALUE(param1_value)           ((void)0)
 100:Generated_Source\PSoC5/ErikaOS_ee_oo_internal.inc **** #define EE_OS_ERROR_PARAMETERS_PARAM2_VALUE(param2_value)           ((void)0)
 101:Generated_Source\PSoC5/ErikaOS_ee_oo_internal.inc **** #define EE_OS_ERROR_PARAMETERS_PARAM3_VALUE(param3_value)           ((void)0)
 102:Generated_Source\PSoC5/ErikaOS_ee_oo_internal.inc **** 
 103:Generated_Source\PSoC5/ErikaOS_ee_oo_internal.inc **** #define EE_OS_ERROR_PARAMETERS_PARAM1_REF(param_field,param_ref)    ((void)0)
 104:Generated_Source\PSoC5/ErikaOS_ee_oo_internal.inc **** #define EE_OS_ERROR_PARAMETERS_PARAM2_REF(param_field,param_ref)    ((void)0)
 105:Generated_Source\PSoC5/ErikaOS_ee_oo_internal.inc **** #define EE_OS_ERROR_PARAMETERS_PARAM3_REF(param_field,param_ref)    ((void)0)
 106:Generated_Source\PSoC5/ErikaOS_ee_oo_internal.inc **** #endif /* __OO_HAS_ERRORHOOK__ */
 107:Generated_Source\PSoC5/ErikaOS_ee_oo_internal.inc **** 
 108:Generated_Source\PSoC5/ErikaOS_ee_oo_internal.inc **** /* Error Handling */
 109:Generated_Source\PSoC5/ErikaOS_ee_oo_internal.inc **** #ifdef __OO_HAS_ERRORHOOK__
 110:Generated_Source\PSoC5/ErikaOS_ee_oo_internal.inc **** #ifndef  __OO_ERRORHOOK_NOMACROS__
 111:Generated_Source\PSoC5/ErikaOS_ee_oo_internal.inc **** 
 112:Generated_Source\PSoC5/ErikaOS_ee_oo_internal.inc **** __INLINE__ void  EE_os_fill_error_data( OSServiceIdType
 113:Generated_Source\PSoC5/ErikaOS_ee_oo_internal.inc ****   ServiceID, EE_os_param param1, EE_os_param param2, EE_os_param param3 )
 114:Generated_Source\PSoC5/ErikaOS_ee_oo_internal.inc **** {
 115:Generated_Source\PSoC5/ErikaOS_ee_oo_internal.inc ****   register EE_oo_ErrorHook_parameters * const
 116:Generated_Source\PSoC5/ErikaOS_ee_oo_internal.inc ****     p_errorhook_parameter = EE_oo_get_errorhook_data();
 117:Generated_Source\PSoC5/ErikaOS_ee_oo_internal.inc ****   (*EE_oo_get_errorhook_service_id()) = ServiceID;
 118:Generated_Source\PSoC5/ErikaOS_ee_oo_internal.inc ****   p_errorhook_parameter->param1 = param1;
 119:Generated_Source\PSoC5/ErikaOS_ee_oo_internal.inc ****   p_errorhook_parameter->param2 = param2;
 120:Generated_Source\PSoC5/ErikaOS_ee_oo_internal.inc ****   p_errorhook_parameter->param3 = param3;
 121:Generated_Source\PSoC5/ErikaOS_ee_oo_internal.inc **** }
 122:Generated_Source\PSoC5/ErikaOS_ee_oo_internal.inc **** #else /* !__OO_ERRORHOOK_NOMACROS__ */
 123:Generated_Source\PSoC5/ErikaOS_ee_oo_internal.inc **** 
 124:Generated_Source\PSoC5/ErikaOS_ee_oo_internal.inc **** #define EE_os_fill_error_data(ServiceID,param1,param2,param3) ((void)0)
 125:Generated_Source\PSoC5/ErikaOS_ee_oo_internal.inc **** #endif /* !__OO_ERRORHOOK_NOMACROS__ */
 126:Generated_Source\PSoC5/ErikaOS_ee_oo_internal.inc **** 
 127:Generated_Source\PSoC5/ErikaOS_ee_oo_internal.inc **** __INLINE__ void  EE_os_notify_error( OSServiceIdType ServiceID,
 128:Generated_Source\PSoC5/ErikaOS_ee_oo_internal.inc ****   EE_os_param param1, EE_os_param param2, EE_os_param param3,
 129:Generated_Source\PSoC5/ErikaOS_ee_oo_internal.inc ****   StatusType Error )
 130:Generated_Source\PSoC5/ErikaOS_ee_oo_internal.inc **** {
 131:Generated_Source\PSoC5/ErikaOS_ee_oo_internal.inc ****   EE_ORTI_set_lasterror(Error);
 132:Generated_Source\PSoC5/ErikaOS_ee_oo_internal.inc ****   if ( EE_ErrorHook_nested_flag == 0U )
 133:Generated_Source\PSoC5/ErikaOS_ee_oo_internal.inc ****   {
 134:Generated_Source\PSoC5/ErikaOS_ee_oo_internal.inc ****     EE_os_fill_error_data(ServiceID, param1, param2, param3);
 135:Generated_Source\PSoC5/ErikaOS_ee_oo_internal.inc ****     EE_ErrorHook_nested_flag = 1U;
 136:Generated_Source\PSoC5/ErikaOS_ee_oo_internal.inc ****     EE_oo_call_ErrorHook(Error);
 137:Generated_Source\PSoC5/ErikaOS_ee_oo_internal.inc ****     EE_ErrorHook_nested_flag = 0U;
 138:Generated_Source\PSoC5/ErikaOS_ee_oo_internal.inc ****   }
 139:Generated_Source\PSoC5/ErikaOS_ee_oo_internal.inc **** }
 140:Generated_Source\PSoC5/ErikaOS_ee_oo_internal.inc **** 
 141:Generated_Source\PSoC5/ErikaOS_ee_oo_internal.inc **** #ifndef __EE_MEMORY_PROTECTION__
 142:Generated_Source\PSoC5/ErikaOS_ee_oo_internal.inc **** __INLINE__ void  EE_os_notify_error_from_us(
 143:Generated_Source\PSoC5/ErikaOS_ee_oo_internal.inc ****   OSServiceIdType ServiceID, const EE_oo_ErrorHook_parameters * const
 144:Generated_Source\PSoC5/ErikaOS_ee_oo_internal.inc ****     error_parameters_ref, StatusType Error )
 145:Generated_Source\PSoC5/ErikaOS_ee_oo_internal.inc **** {
 146:Generated_Source\PSoC5/ErikaOS_ee_oo_internal.inc ****   if ( error_parameters_ref != NULL ) {
 147:Generated_Source\PSoC5/ErikaOS_ee_oo_internal.inc ****     register EE_FREG const flag = EE_hal_begin_nested_primitive();
 148:Generated_Source\PSoC5/ErikaOS_ee_oo_internal.inc ****     EE_os_notify_error(ServiceID, error_parameters_ref->param1,
 149:Generated_Source\PSoC5/ErikaOS_ee_oo_internal.inc ****       error_parameters_ref->param2, error_parameters_ref->param3, Error);
 150:Generated_Source\PSoC5/ErikaOS_ee_oo_internal.inc ****     EE_hal_end_nested_primitive(flag);
 151:Generated_Source\PSoC5/ErikaOS_ee_oo_internal.inc ****   }
 152:Generated_Source\PSoC5/ErikaOS_ee_oo_internal.inc **** }
 153:Generated_Source\PSoC5/ErikaOS_ee_oo_internal.inc **** #else /* !__EE_MEMORY_PROTECTION__ */
ARM GAS  C:\Users\agila\AppData\Local\Temp\cccLUxJg.s 			page 6


 154:Generated_Source\PSoC5/ErikaOS_ee_oo_internal.inc **** /* If MemMap.h support is enabled (i.e. because memory protection): use it */
 155:Generated_Source\PSoC5/ErikaOS_ee_oo_internal.inc **** #ifdef EE_SUPPORT_MEMMAP_H
 156:Generated_Source\PSoC5/ErikaOS_ee_oo_internal.inc **** /* The following code belong to ERIKA API section ee_api_text */
 157:Generated_Source\PSoC5/ErikaOS_ee_oo_internal.inc **** #define API_START_SEC_CODE
 158:Generated_Source\PSoC5/ErikaOS_ee_oo_internal.inc **** #include "MemMap.inc"
 159:Generated_Source\PSoC5/ErikaOS_ee_oo_internal.inc **** #endif /* EE_SUPPORT_MEMMAP_H */
 160:Generated_Source\PSoC5/ErikaOS_ee_oo_internal.inc **** 
 161:Generated_Source\PSoC5/ErikaOS_ee_oo_internal.inc **** void EE_os_notify_error_from_us( OSServiceIdType ServiceID,
 162:Generated_Source\PSoC5/ErikaOS_ee_oo_internal.inc ****   const EE_oo_ErrorHook_parameters * const error_parameters_ref,
 163:Generated_Source\PSoC5/ErikaOS_ee_oo_internal.inc ****   StatusType Error );
 164:Generated_Source\PSoC5/ErikaOS_ee_oo_internal.inc **** 
 165:Generated_Source\PSoC5/ErikaOS_ee_oo_internal.inc **** #ifdef EE_SUPPORT_MEMMAP_H
 166:Generated_Source\PSoC5/ErikaOS_ee_oo_internal.inc **** #define API_STOP_SEC_CODE
 167:Generated_Source\PSoC5/ErikaOS_ee_oo_internal.inc **** #include "MemMap.inc"
 168:Generated_Source\PSoC5/ErikaOS_ee_oo_internal.inc **** #endif /* EE_SUPPORT_MEMMAP_H */
 169:Generated_Source\PSoC5/ErikaOS_ee_oo_internal.inc **** #endif /* !__EE_MEMORY_PROTECTION__ */
 170:Generated_Source\PSoC5/ErikaOS_ee_oo_internal.inc **** #else /* __OO_HAS_ERRORHOOK__ */
 171:Generated_Source\PSoC5/ErikaOS_ee_oo_internal.inc **** 
 172:Generated_Source\PSoC5/ErikaOS_ee_oo_internal.inc **** /* Macro used for remapping to prevent compiler warnings on unused parameters */
 173:Generated_Source\PSoC5/ErikaOS_ee_oo_internal.inc **** #define EE_os_notify_error(k,j,x,y,z) EE_os_notify_error_impl(z)
 174:Generated_Source\PSoC5/ErikaOS_ee_oo_internal.inc **** 
 175:Generated_Source\PSoC5/ErikaOS_ee_oo_internal.inc **** __INLINE__ void  EE_os_notify_error_impl(StatusType Error)
 176:Generated_Source\PSoC5/ErikaOS_ee_oo_internal.inc **** {
 177:Generated_Source\PSoC5/ErikaOS_ee_oo_internal.inc ****   EE_ORTI_set_lasterror(Error);
 178:Generated_Source\PSoC5/ErikaOS_ee_oo_internal.inc **** }
 179:Generated_Source\PSoC5/ErikaOS_ee_oo_internal.inc **** 
 180:Generated_Source\PSoC5/ErikaOS_ee_oo_internal.inc **** /* Macro used for remapping to prevent compiler warnings on unused parameters */
 181:Generated_Source\PSoC5/ErikaOS_ee_oo_internal.inc **** #define EE_os_notify_error_from_us(x,y,z) EE_os_notify_error_from_us_impl(z)
 182:Generated_Source\PSoC5/ErikaOS_ee_oo_internal.inc **** 
 183:Generated_Source\PSoC5/ErikaOS_ee_oo_internal.inc **** __INLINE__ void  EE_os_notify_error_from_us_impl(
 184:Generated_Source\PSoC5/ErikaOS_ee_oo_internal.inc ****   StatusType Error )
 185:Generated_Source\PSoC5/ErikaOS_ee_oo_internal.inc **** {
 186:Generated_Source\PSoC5/ErikaOS_ee_oo_internal.inc ****   EE_ORTI_set_lasterror(Error);
 187:Generated_Source\PSoC5/ErikaOS_ee_oo_internal.inc **** }
 188:Generated_Source\PSoC5/ErikaOS_ee_oo_internal.inc **** #endif /* __OO_HAS_ERRORHOOK__ */
 189:Generated_Source\PSoC5/ErikaOS_ee_oo_internal.inc **** 
 190:Generated_Source\PSoC5/ErikaOS_ee_oo_internal.inc **** /*******************************************************************************
 191:Generated_Source\PSoC5/ErikaOS_ee_oo_internal.inc ****  *                  Kernel Critical Section Utility Macros
 192:Generated_Source\PSoC5/ErikaOS_ee_oo_internal.inc ****  ******************************************************************************/
 193:Generated_Source\PSoC5/ErikaOS_ee_oo_internal.inc **** #ifndef __EE_MEMORY_PROTECTION__
 194:Generated_Source\PSoC5/ErikaOS_ee_oo_internal.inc **** 
 195:Generated_Source\PSoC5/ErikaOS_ee_oo_internal.inc **** #define EE_OS_DECLARE_CRITICAL_SECTION()  register EE_FREG flag
 196:Generated_Source\PSoC5/ErikaOS_ee_oo_internal.inc **** 
 197:Generated_Source\PSoC5/ErikaOS_ee_oo_internal.inc **** #define EE_OS_ENTER_CRITICAL_SECTION()          \
 198:Generated_Source\PSoC5/ErikaOS_ee_oo_internal.inc ****   do {                                          \
 199:Generated_Source\PSoC5/ErikaOS_ee_oo_internal.inc ****     flag = EE_hal_begin_nested_primitive();     \
 200:Generated_Source\PSoC5/ErikaOS_ee_oo_internal.inc ****     EE_as_tp_active_pause_and_update_budgets(); \
 201:Generated_Source\PSoC5/ErikaOS_ee_oo_internal.inc ****   } while ( 0 )
 202:Generated_Source\PSoC5/ErikaOS_ee_oo_internal.inc **** 
 203:Generated_Source\PSoC5/ErikaOS_ee_oo_internal.inc **** #define EE_OS_DECLARE_AND_ENTER_CRITICAL_SECTION()  \
 204:Generated_Source\PSoC5/ErikaOS_ee_oo_internal.inc ****   EE_OS_DECLARE_CRITICAL_SECTION();                 \
 205:Generated_Source\PSoC5/ErikaOS_ee_oo_internal.inc ****   EE_OS_ENTER_CRITICAL_SECTION()
 206:Generated_Source\PSoC5/ErikaOS_ee_oo_internal.inc **** 
 207:Generated_Source\PSoC5/ErikaOS_ee_oo_internal.inc **** #define EE_OS_EXIT_CRITICAL_SECTION()             \
 208:Generated_Source\PSoC5/ErikaOS_ee_oo_internal.inc ****   do {                                            \
 209:Generated_Source\PSoC5/ErikaOS_ee_oo_internal.inc ****     EE_as_tp_active_update_budgets_and_restart(); \
 210:Generated_Source\PSoC5/ErikaOS_ee_oo_internal.inc ****     EE_hal_end_nested_primitive(flag);            \
ARM GAS  C:\Users\agila\AppData\Local\Temp\cccLUxJg.s 			page 7


 211:Generated_Source\PSoC5/ErikaOS_ee_oo_internal.inc ****   } while ( 0 )
 212:Generated_Source\PSoC5/ErikaOS_ee_oo_internal.inc **** 
 213:Generated_Source\PSoC5/ErikaOS_ee_oo_internal.inc **** #define EE_OS_FOREVER_CRITICAL_SECTION()          \
 214:Generated_Source\PSoC5/ErikaOS_ee_oo_internal.inc ****   do {                                            \
 215:Generated_Source\PSoC5/ErikaOS_ee_oo_internal.inc ****     EE_hal_disableIRQ();                          \
 216:Generated_Source\PSoC5/ErikaOS_ee_oo_internal.inc ****     EE_as_tp_active_pause_and_update_budgets();   \
 217:Generated_Source\PSoC5/ErikaOS_ee_oo_internal.inc ****   } while ( 0 )
 218:Generated_Source\PSoC5/ErikaOS_ee_oo_internal.inc **** 
 219:Generated_Source\PSoC5/ErikaOS_ee_oo_internal.inc **** #else /* !__EE_MEMORY_PROTECTION__ */
 220:Generated_Source\PSoC5/ErikaOS_ee_oo_internal.inc **** /* TP in any case have to be handled in Service Implementation. Syscall
 221:Generated_Source\PSoC5/ErikaOS_ee_oo_internal.inc ****    mechanism can be implement in C language and, in that case, a function call
 222:Generated_Source\PSoC5/ErikaOS_ee_oo_internal.inc ****    cannot be done in syscall handler. */
 223:Generated_Source\PSoC5/ErikaOS_ee_oo_internal.inc **** #define EE_OS_DECLARE_CRITICAL_SECTION()            ((void)0)
 224:Generated_Source\PSoC5/ErikaOS_ee_oo_internal.inc **** #define EE_OS_ENTER_CRITICAL_SECTION()              \
 225:Generated_Source\PSoC5/ErikaOS_ee_oo_internal.inc ****   EE_as_tp_active_pause_and_update_budgets()
 226:Generated_Source\PSoC5/ErikaOS_ee_oo_internal.inc **** #define EE_OS_DECLARE_AND_ENTER_CRITICAL_SECTION()  \
 227:Generated_Source\PSoC5/ErikaOS_ee_oo_internal.inc ****   EE_as_tp_active_pause_and_update_budgets()
 228:Generated_Source\PSoC5/ErikaOS_ee_oo_internal.inc **** #define EE_OS_EXIT_CRITICAL_SECTION()               \
 229:Generated_Source\PSoC5/ErikaOS_ee_oo_internal.inc ****   EE_as_tp_active_update_budgets_and_restart()
 230:Generated_Source\PSoC5/ErikaOS_ee_oo_internal.inc **** #define EE_OS_FOREVER_CRITICAL_SECTION()			\
 231:Generated_Source\PSoC5/ErikaOS_ee_oo_internal.inc ****   EE_as_tp_active_pause_and_update_budgets()
 232:Generated_Source\PSoC5/ErikaOS_ee_oo_internal.inc **** #endif /* !__EE_MEMORY_PROTECTION__ */
 233:Generated_Source\PSoC5/ErikaOS_ee_oo_internal.inc **** 
 234:Generated_Source\PSoC5/ErikaOS_ee_oo_internal.inc **** /* return the first stacked task (the running task) without extracting it 
 235:Generated_Source\PSoC5/ErikaOS_ee_oo_internal.inc ****    we suppose that this function can be called ALSO at interrupt ENABLED!!!
 236:Generated_Source\PSoC5/ErikaOS_ee_oo_internal.inc ****    (see WaitEvent.c) */
 237:Generated_Source\PSoC5/ErikaOS_ee_oo_internal.inc **** #ifndef __PRIVATE_STK_QUERYFIRST__
 238:Generated_Source\PSoC5/ErikaOS_ee_oo_internal.inc **** __INLINE__ EE_TID  EE_stk_queryfirst(void)
 239:Generated_Source\PSoC5/ErikaOS_ee_oo_internal.inc **** {
 240:Generated_Source\PSoC5/ErikaOS_ee_oo_internal.inc ****     return EE_stkfirst;  
  42              		.loc 2 240 0
  43 0002 334B     		ldr	r3, .L19
  44 0004 1A68     		ldr	r2, [r3]
  45              	.LBE53:
  46              	.LBE52:
  47              	.LBB54:
  48              	.LBB55:
  49              		.file 3 "Generated_Source\\PSoC5\\ErikaOS_common_ee_primitives.inc"
   1:Generated_Source\PSoC5/ErikaOS_common_ee_primitives.inc **** /* ###*B*###
   2:Generated_Source\PSoC5/ErikaOS_common_ee_primitives.inc ****  * ERIKA Enterprise - a tiny RTOS for small microcontrollers
   3:Generated_Source\PSoC5/ErikaOS_common_ee_primitives.inc ****  *
   4:Generated_Source\PSoC5/ErikaOS_common_ee_primitives.inc ****  * Copyright (C) 2002-2009  Evidence Srl
   5:Generated_Source\PSoC5/ErikaOS_common_ee_primitives.inc ****  *
   6:Generated_Source\PSoC5/ErikaOS_common_ee_primitives.inc ****  * This file is part of ERIKA Enterprise.
   7:Generated_Source\PSoC5/ErikaOS_common_ee_primitives.inc ****  *
   8:Generated_Source\PSoC5/ErikaOS_common_ee_primitives.inc ****  * ERIKA Enterprise is free software; you can redistribute it
   9:Generated_Source\PSoC5/ErikaOS_common_ee_primitives.inc ****  * and/or modify it under the terms of the GNU General Public License
  10:Generated_Source\PSoC5/ErikaOS_common_ee_primitives.inc ****  * version 2 as published by the Free Software Foundation, 
  11:Generated_Source\PSoC5/ErikaOS_common_ee_primitives.inc ****  * (with a special exception described below).
  12:Generated_Source\PSoC5/ErikaOS_common_ee_primitives.inc ****  *
  13:Generated_Source\PSoC5/ErikaOS_common_ee_primitives.inc ****  * Linking this code statically or dynamically with other modules is
  14:Generated_Source\PSoC5/ErikaOS_common_ee_primitives.inc ****  * making a combined work based on this code.  Thus, the terms and
  15:Generated_Source\PSoC5/ErikaOS_common_ee_primitives.inc ****  * conditions of the GNU General Public License cover the whole
  16:Generated_Source\PSoC5/ErikaOS_common_ee_primitives.inc ****  * combination.
  17:Generated_Source\PSoC5/ErikaOS_common_ee_primitives.inc ****  *
  18:Generated_Source\PSoC5/ErikaOS_common_ee_primitives.inc ****  * As a special exception, the copyright holders of this library give you
  19:Generated_Source\PSoC5/ErikaOS_common_ee_primitives.inc ****  * permission to link this code with independent modules to produce an
ARM GAS  C:\Users\agila\AppData\Local\Temp\cccLUxJg.s 			page 8


  20:Generated_Source\PSoC5/ErikaOS_common_ee_primitives.inc ****  * executable, regardless of the license terms of these independent
  21:Generated_Source\PSoC5/ErikaOS_common_ee_primitives.inc ****  * modules, and to copy and distribute the resulting executable under
  22:Generated_Source\PSoC5/ErikaOS_common_ee_primitives.inc ****  * terms of your choice, provided that you also meet, for each linked
  23:Generated_Source\PSoC5/ErikaOS_common_ee_primitives.inc ****  * independent module, the terms and conditions of the license of that
  24:Generated_Source\PSoC5/ErikaOS_common_ee_primitives.inc ****  * module.  An independent module is a module which is not derived from
  25:Generated_Source\PSoC5/ErikaOS_common_ee_primitives.inc ****  * or based on this library.  If you modify this code, you may extend
  26:Generated_Source\PSoC5/ErikaOS_common_ee_primitives.inc ****  * this exception to your version of the code, but you are not
  27:Generated_Source\PSoC5/ErikaOS_common_ee_primitives.inc ****  * obligated to do so.  If you do not wish to do so, delete this
  28:Generated_Source\PSoC5/ErikaOS_common_ee_primitives.inc ****  * exception statement from your version.
  29:Generated_Source\PSoC5/ErikaOS_common_ee_primitives.inc ****  *
  30:Generated_Source\PSoC5/ErikaOS_common_ee_primitives.inc ****  * ERIKA Enterprise is distributed in the hope that it will be
  31:Generated_Source\PSoC5/ErikaOS_common_ee_primitives.inc ****  * useful, but WITHOUT ANY WARRANTY; without even the implied warranty
  32:Generated_Source\PSoC5/ErikaOS_common_ee_primitives.inc ****  * of MERCHANTABILITY or FITNESS FOR A PARTICULAR PURPOSE.  See the
  33:Generated_Source\PSoC5/ErikaOS_common_ee_primitives.inc ****  * GNU General Public License version 2 for more details.
  34:Generated_Source\PSoC5/ErikaOS_common_ee_primitives.inc ****  *
  35:Generated_Source\PSoC5/ErikaOS_common_ee_primitives.inc ****  * You should have received a copy of the GNU General Public License
  36:Generated_Source\PSoC5/ErikaOS_common_ee_primitives.inc ****  * version 2 along with ERIKA Enterprise; if not, write to the
  37:Generated_Source\PSoC5/ErikaOS_common_ee_primitives.inc ****  * Free Software Foundation, Inc., 51 Franklin Street, Fifth Floor,
  38:Generated_Source\PSoC5/ErikaOS_common_ee_primitives.inc ****  * Boston, MA 02110-1301 USA.
  39:Generated_Source\PSoC5/ErikaOS_common_ee_primitives.inc ****  * ###*E*### */
  40:Generated_Source\PSoC5/ErikaOS_common_ee_primitives.inc **** 
  41:Generated_Source\PSoC5/ErikaOS_common_ee_primitives.inc **** /*
  42:Generated_Source\PSoC5/ErikaOS_common_ee_primitives.inc ****  * Functions used in HAL implementations, to be included by a specific
  43:Generated_Source\PSoC5/ErikaOS_common_ee_primitives.inc ****  * ee_internal.h header.
  44:Generated_Source\PSoC5/ErikaOS_common_ee_primitives.inc ****  * Derived from pkg/cpu/pic30/inc/ee_internal.h
  45:Generated_Source\PSoC5/ErikaOS_common_ee_primitives.inc ****  * Author: 2009 Bernardo Dal Seno
  46:Generated_Source\PSoC5/ErikaOS_common_ee_primitives.inc ****  */
  47:Generated_Source\PSoC5/ErikaOS_common_ee_primitives.inc **** 
  48:Generated_Source\PSoC5/ErikaOS_common_ee_primitives.inc **** /*
  49:Generated_Source\PSoC5/ErikaOS_common_ee_primitives.inc ****  * PSoC Port and API Generation
  50:Generated_Source\PSoC5/ErikaOS_common_ee_primitives.inc ****  * Carlos Fernando Meier Martinez
  51:Generated_Source\PSoC5/ErikaOS_common_ee_primitives.inc ****  * Hochschule Darmstadt, Germany. 2017.
  52:Generated_Source\PSoC5/ErikaOS_common_ee_primitives.inc ****  */
  53:Generated_Source\PSoC5/ErikaOS_common_ee_primitives.inc **** 
  54:Generated_Source\PSoC5/ErikaOS_common_ee_primitives.inc **** #ifndef PKG_CPU_COMMON_INC_EE_PRIMITIVES_H
  55:Generated_Source\PSoC5/ErikaOS_common_ee_primitives.inc **** #define PKG_CPU_COMMON_INC_EE_PRIMITIVES_H
  56:Generated_Source\PSoC5/ErikaOS_common_ee_primitives.inc **** 
  57:Generated_Source\PSoC5/ErikaOS_common_ee_primitives.inc **** /*
  58:Generated_Source\PSoC5/ErikaOS_common_ee_primitives.inc ****  * Nested Interrupts Handling
  59:Generated_Source\PSoC5/ErikaOS_common_ee_primitives.inc ****  */
  60:Generated_Source\PSoC5/ErikaOS_common_ee_primitives.inc **** 
  61:Generated_Source\PSoC5/ErikaOS_common_ee_primitives.inc **** /* If MemMap.h support is enabled (i.e. because memory protection): use it */
  62:Generated_Source\PSoC5/ErikaOS_common_ee_primitives.inc **** #ifdef EE_SUPPORT_MEMMAP_H
  63:Generated_Source\PSoC5/ErikaOS_common_ee_primitives.inc **** /* The following variables belong to ERIKA OS section: ee_kernel_bss */
  64:Generated_Source\PSoC5/ErikaOS_common_ee_primitives.inc **** #define OS_START_SEC_VAR_NOINIT
  65:Generated_Source\PSoC5/ErikaOS_common_ee_primitives.inc **** #include "MemMap.inc"
  66:Generated_Source\PSoC5/ErikaOS_common_ee_primitives.inc **** #endif /* EE_SUPPORT_MEMMAP_H */
  67:Generated_Source\PSoC5/ErikaOS_common_ee_primitives.inc **** 
  68:Generated_Source\PSoC5/ErikaOS_common_ee_primitives.inc **** extern EE_UREG EE_IRQ_nesting_level;
  69:Generated_Source\PSoC5/ErikaOS_common_ee_primitives.inc **** 
  70:Generated_Source\PSoC5/ErikaOS_common_ee_primitives.inc **** /* If MemMap.h support is enabled (i.e. because memory protection): use it */
  71:Generated_Source\PSoC5/ErikaOS_common_ee_primitives.inc **** #ifdef EE_SUPPORT_MEMMAP_H
  72:Generated_Source\PSoC5/ErikaOS_common_ee_primitives.inc **** #define OS_STOP_SEC_VAR_NOINIT
  73:Generated_Source\PSoC5/ErikaOS_common_ee_primitives.inc **** #include "MemMap.inc"
  74:Generated_Source\PSoC5/ErikaOS_common_ee_primitives.inc **** #endif /* EE_SUPPORT_MEMMAP_H */
  75:Generated_Source\PSoC5/ErikaOS_common_ee_primitives.inc **** 
  76:Generated_Source\PSoC5/ErikaOS_common_ee_primitives.inc **** /* can be called with interrupt enabled */
ARM GAS  C:\Users\agila\AppData\Local\Temp\cccLUxJg.s 			page 9


  77:Generated_Source\PSoC5/ErikaOS_common_ee_primitives.inc **** __INLINE__ EE_UREG  EE_hal_get_IRQ_nesting_level(void)
  78:Generated_Source\PSoC5/ErikaOS_common_ee_primitives.inc **** {
  79:Generated_Source\PSoC5/ErikaOS_common_ee_primitives.inc ****     return EE_IRQ_nesting_level;
  50              		.loc 3 79 0
  51 0006 334B     		ldr	r3, .L19+4
  52 0008 1B68     		ldr	r3, [r3]
  53              	.LVL1:
  54              	.LBE55:
  55              	.LBE54:
  56              	.LBB56:
  57              	.LBB57:
  58              	.LBB58:
  59              		.file 4 "Generated_Source\\PSoC5\\ErikaOS_cortex_mx_ee_cpu.inc"
   1:Generated_Source\PSoC5/ErikaOS_cortex_mx_ee_cpu.inc **** /* ###*B*###
   2:Generated_Source\PSoC5/ErikaOS_cortex_mx_ee_cpu.inc ****  * ERIKA Enterprise - a tiny RTOS for small microcontrollers
   3:Generated_Source\PSoC5/ErikaOS_cortex_mx_ee_cpu.inc ****  *
   4:Generated_Source\PSoC5/ErikaOS_cortex_mx_ee_cpu.inc ****  * Copyright (C) 2002-2011  Evidence Srl
   5:Generated_Source\PSoC5/ErikaOS_cortex_mx_ee_cpu.inc ****  *
   6:Generated_Source\PSoC5/ErikaOS_cortex_mx_ee_cpu.inc ****  * This file is part of ERIKA Enterprise.
   7:Generated_Source\PSoC5/ErikaOS_cortex_mx_ee_cpu.inc ****  *
   8:Generated_Source\PSoC5/ErikaOS_cortex_mx_ee_cpu.inc ****  * ERIKA Enterprise is free software; you can redistribute it
   9:Generated_Source\PSoC5/ErikaOS_cortex_mx_ee_cpu.inc ****  * and/or modify it under the terms of the GNU General Public License
  10:Generated_Source\PSoC5/ErikaOS_cortex_mx_ee_cpu.inc ****  * version 2 as published by the Free Software Foundation, 
  11:Generated_Source\PSoC5/ErikaOS_cortex_mx_ee_cpu.inc ****  * (with a special exception described below).
  12:Generated_Source\PSoC5/ErikaOS_cortex_mx_ee_cpu.inc ****  *
  13:Generated_Source\PSoC5/ErikaOS_cortex_mx_ee_cpu.inc ****  * Linking this code statically or dynamically with other modules is
  14:Generated_Source\PSoC5/ErikaOS_cortex_mx_ee_cpu.inc ****  * making a combined work based on this code.  Thus, the terms and
  15:Generated_Source\PSoC5/ErikaOS_cortex_mx_ee_cpu.inc ****  * conditions of the GNU General Public License cover the whole
  16:Generated_Source\PSoC5/ErikaOS_cortex_mx_ee_cpu.inc ****  * combination.
  17:Generated_Source\PSoC5/ErikaOS_cortex_mx_ee_cpu.inc ****  *
  18:Generated_Source\PSoC5/ErikaOS_cortex_mx_ee_cpu.inc ****  * As a special exception, the copyright holders of this library give you
  19:Generated_Source\PSoC5/ErikaOS_cortex_mx_ee_cpu.inc ****  * permission to link this code with independent modules to produce an
  20:Generated_Source\PSoC5/ErikaOS_cortex_mx_ee_cpu.inc ****  * executable, regardless of the license terms of these independent
  21:Generated_Source\PSoC5/ErikaOS_cortex_mx_ee_cpu.inc ****  * modules, and to copy and distribute the resulting executable under
  22:Generated_Source\PSoC5/ErikaOS_cortex_mx_ee_cpu.inc ****  * terms of your choice, provided that you also meet, for each linked
  23:Generated_Source\PSoC5/ErikaOS_cortex_mx_ee_cpu.inc ****  * independent module, the terms and conditions of the license of that
  24:Generated_Source\PSoC5/ErikaOS_cortex_mx_ee_cpu.inc ****  * module.  An independent module is a module which is not derived from
  25:Generated_Source\PSoC5/ErikaOS_cortex_mx_ee_cpu.inc ****  * or based on this library.  If you modify this code, you may extend
  26:Generated_Source\PSoC5/ErikaOS_cortex_mx_ee_cpu.inc ****  * this exception to your version of the code, but you are not
  27:Generated_Source\PSoC5/ErikaOS_cortex_mx_ee_cpu.inc ****  * obligated to do so.  If you do not wish to do so, delete this
  28:Generated_Source\PSoC5/ErikaOS_cortex_mx_ee_cpu.inc ****  * exception statement from your version.
  29:Generated_Source\PSoC5/ErikaOS_cortex_mx_ee_cpu.inc ****  *
  30:Generated_Source\PSoC5/ErikaOS_cortex_mx_ee_cpu.inc ****  * ERIKA Enterprise is distributed in the hope that it will be
  31:Generated_Source\PSoC5/ErikaOS_cortex_mx_ee_cpu.inc ****  * useful, but WITHOUT ANY WARRANTY; without even the implied warranty
  32:Generated_Source\PSoC5/ErikaOS_cortex_mx_ee_cpu.inc ****  * of MERCHANTABILITY or FITNESS FOR A PARTICULAR PURPOSE.  See the
  33:Generated_Source\PSoC5/ErikaOS_cortex_mx_ee_cpu.inc ****  * GNU General Public License version 2 for more details.
  34:Generated_Source\PSoC5/ErikaOS_cortex_mx_ee_cpu.inc ****  *
  35:Generated_Source\PSoC5/ErikaOS_cortex_mx_ee_cpu.inc ****  * You should have received a copy of the GNU General Public License
  36:Generated_Source\PSoC5/ErikaOS_cortex_mx_ee_cpu.inc ****  * version 2 along with ERIKA Enterprise; if not, write to the
  37:Generated_Source\PSoC5/ErikaOS_cortex_mx_ee_cpu.inc ****  * Free Software Foundation, Inc., 51 Franklin Street, Fifth Floor,
  38:Generated_Source\PSoC5/ErikaOS_cortex_mx_ee_cpu.inc ****  * Boston, MA 02110-1301 USA.
  39:Generated_Source\PSoC5/ErikaOS_cortex_mx_ee_cpu.inc ****  * ###*E*### */
  40:Generated_Source\PSoC5/ErikaOS_cortex_mx_ee_cpu.inc **** 
  41:Generated_Source\PSoC5/ErikaOS_cortex_mx_ee_cpu.inc **** /** 
  42:Generated_Source\PSoC5/ErikaOS_cortex_mx_ee_cpu.inc **** 	@file ee_cpu.h
  43:Generated_Source\PSoC5/ErikaOS_cortex_mx_ee_cpu.inc **** 	@brief CPU-dependent part of HAL. Derived from pkg/cpu/pic30/inc/ee_cpu.h
  44:Generated_Source\PSoC5/ErikaOS_cortex_mx_ee_cpu.inc **** 	@author Gianluca Franchino
ARM GAS  C:\Users\agila\AppData\Local\Temp\cccLUxJg.s 			page 10


  45:Generated_Source\PSoC5/ErikaOS_cortex_mx_ee_cpu.inc **** 	@author Giuseppe Serano
  46:Generated_Source\PSoC5/ErikaOS_cortex_mx_ee_cpu.inc **** 	@date 2011
  47:Generated_Source\PSoC5/ErikaOS_cortex_mx_ee_cpu.inc **** */ 
  48:Generated_Source\PSoC5/ErikaOS_cortex_mx_ee_cpu.inc ****     
  49:Generated_Source\PSoC5/ErikaOS_cortex_mx_ee_cpu.inc **** /*
  50:Generated_Source\PSoC5/ErikaOS_cortex_mx_ee_cpu.inc ****  * PSoC Port and API Generation
  51:Generated_Source\PSoC5/ErikaOS_cortex_mx_ee_cpu.inc ****  * Carlos Fernando Meier Martinez
  52:Generated_Source\PSoC5/ErikaOS_cortex_mx_ee_cpu.inc ****  * Hochschule Darmstadt, Germany. 2017.
  53:Generated_Source\PSoC5/ErikaOS_cortex_mx_ee_cpu.inc ****  */
  54:Generated_Source\PSoC5/ErikaOS_cortex_mx_ee_cpu.inc **** 
  55:Generated_Source\PSoC5/ErikaOS_cortex_mx_ee_cpu.inc **** #ifndef __INCLUDE_CORTEX_MX_EE_CPU_H__
  56:Generated_Source\PSoC5/ErikaOS_cortex_mx_ee_cpu.inc **** #define __INCLUDE_CORTEX_MX_EE_CPU_H__
  57:Generated_Source\PSoC5/ErikaOS_cortex_mx_ee_cpu.inc **** 
  58:Generated_Source\PSoC5/ErikaOS_cortex_mx_ee_cpu.inc **** #include "ErikaOS_eecfg.inc"
  59:Generated_Source\PSoC5/ErikaOS_cortex_mx_ee_cpu.inc **** 
  60:Generated_Source\PSoC5/ErikaOS_cortex_mx_ee_cpu.inc **** 
  61:Generated_Source\PSoC5/ErikaOS_cortex_mx_ee_cpu.inc **** #ifdef __GNU__
  62:Generated_Source\PSoC5/ErikaOS_cortex_mx_ee_cpu.inc **** #include "ErikaOS_common_ee_compiler_gcc.inc"
  63:Generated_Source\PSoC5/ErikaOS_cortex_mx_ee_cpu.inc **** #endif
  64:Generated_Source\PSoC5/ErikaOS_cortex_mx_ee_cpu.inc **** 
  65:Generated_Source\PSoC5/ErikaOS_cortex_mx_ee_cpu.inc **** /* Initial stack offset (in words): Used in multistack. */
  66:Generated_Source\PSoC5/ErikaOS_cortex_mx_ee_cpu.inc **** #ifndef CORTEX_MX_INIT_TOS_OFFSET
  67:Generated_Source\PSoC5/ErikaOS_cortex_mx_ee_cpu.inc **** #define CORTEX_MX_INIT_TOS_OFFSET 10
  68:Generated_Source\PSoC5/ErikaOS_cortex_mx_ee_cpu.inc **** #endif
  69:Generated_Source\PSoC5/ErikaOS_cortex_mx_ee_cpu.inc **** 
  70:Generated_Source\PSoC5/ErikaOS_cortex_mx_ee_cpu.inc **** /*************************************************************************
  71:Generated_Source\PSoC5/ErikaOS_cortex_mx_ee_cpu.inc ****  HAL Types and structures
  72:Generated_Source\PSoC5/ErikaOS_cortex_mx_ee_cpu.inc ****  *************************************************************************/
  73:Generated_Source\PSoC5/ErikaOS_cortex_mx_ee_cpu.inc **** 
  74:Generated_Source\PSoC5/ErikaOS_cortex_mx_ee_cpu.inc **** /* Primitive data types */
  75:Generated_Source\PSoC5/ErikaOS_cortex_mx_ee_cpu.inc **** #include "ErikaOS_common_ee_types.inc"
  76:Generated_Source\PSoC5/ErikaOS_cortex_mx_ee_cpu.inc **** 
  77:Generated_Source\PSoC5/ErikaOS_cortex_mx_ee_cpu.inc **** typedef EE_UINT32 EE_UREG;
  78:Generated_Source\PSoC5/ErikaOS_cortex_mx_ee_cpu.inc **** typedef EE_INT32  EE_SREG;
  79:Generated_Source\PSoC5/ErikaOS_cortex_mx_ee_cpu.inc **** typedef EE_UINT32 EE_FREG;
  80:Generated_Source\PSoC5/ErikaOS_cortex_mx_ee_cpu.inc **** #define EE_UREG_SIZE 4
  81:Generated_Source\PSoC5/ErikaOS_cortex_mx_ee_cpu.inc **** 
  82:Generated_Source\PSoC5/ErikaOS_cortex_mx_ee_cpu.inc **** /* boolean type */
  83:Generated_Source\PSoC5/ErikaOS_cortex_mx_ee_cpu.inc **** #ifndef EE_TYPEBOOL
  84:Generated_Source\PSoC5/ErikaOS_cortex_mx_ee_cpu.inc **** typedef EE_UREG EE_TYPEBOOL;
  85:Generated_Source\PSoC5/ErikaOS_cortex_mx_ee_cpu.inc **** #endif
  86:Generated_Source\PSoC5/ErikaOS_cortex_mx_ee_cpu.inc **** 
  87:Generated_Source\PSoC5/ErikaOS_cortex_mx_ee_cpu.inc **** /* boolean true define */
  88:Generated_Source\PSoC5/ErikaOS_cortex_mx_ee_cpu.inc **** #ifndef EE_TRUE
  89:Generated_Source\PSoC5/ErikaOS_cortex_mx_ee_cpu.inc **** #define EE_TRUE ((EE_TYPEBOOL)1U)
  90:Generated_Source\PSoC5/ErikaOS_cortex_mx_ee_cpu.inc **** #endif
  91:Generated_Source\PSoC5/ErikaOS_cortex_mx_ee_cpu.inc **** 
  92:Generated_Source\PSoC5/ErikaOS_cortex_mx_ee_cpu.inc **** /* boolean false define */
  93:Generated_Source\PSoC5/ErikaOS_cortex_mx_ee_cpu.inc **** #ifndef EE_FALSE
  94:Generated_Source\PSoC5/ErikaOS_cortex_mx_ee_cpu.inc **** #define EE_FALSE ((EE_TYPEBOOL)0U)
  95:Generated_Source\PSoC5/ErikaOS_cortex_mx_ee_cpu.inc **** #endif
  96:Generated_Source\PSoC5/ErikaOS_cortex_mx_ee_cpu.inc **** 
  97:Generated_Source\PSoC5/ErikaOS_cortex_mx_ee_cpu.inc **** #define	EE_HWREG_PTR		volatile EE_UREG *
  98:Generated_Source\PSoC5/ErikaOS_cortex_mx_ee_cpu.inc **** #define	EE_HWREG_ADDR(x)	((EE_HWREG_PTR)(x))
  99:Generated_Source\PSoC5/ErikaOS_cortex_mx_ee_cpu.inc **** #define	EE_HWREG(x)		(*EE_HWREG_ADDR(x))
 100:Generated_Source\PSoC5/ErikaOS_cortex_mx_ee_cpu.inc **** 
 101:Generated_Source\PSoC5/ErikaOS_cortex_mx_ee_cpu.inc **** #ifdef __GNU__
ARM GAS  C:\Users\agila\AppData\Local\Temp\cccLUxJg.s 			page 11


 102:Generated_Source\PSoC5/ErikaOS_cortex_mx_ee_cpu.inc **** 
 103:Generated_Source\PSoC5/ErikaOS_cortex_mx_ee_cpu.inc **** /* Get current SP */
 104:Generated_Source\PSoC5/ErikaOS_cortex_mx_ee_cpu.inc **** __INLINE__ EE_UINT32  __current_sp(void)
 105:Generated_Source\PSoC5/ErikaOS_cortex_mx_ee_cpu.inc **** {
 106:Generated_Source\PSoC5/ErikaOS_cortex_mx_ee_cpu.inc **** EE_UINT32 temp;
 107:Generated_Source\PSoC5/ErikaOS_cortex_mx_ee_cpu.inc **** __ASM ("mov %0, sp" : "=r" (temp) : );
 108:Generated_Source\PSoC5/ErikaOS_cortex_mx_ee_cpu.inc **** return temp;
 109:Generated_Source\PSoC5/ErikaOS_cortex_mx_ee_cpu.inc **** }
 110:Generated_Source\PSoC5/ErikaOS_cortex_mx_ee_cpu.inc **** 
 111:Generated_Source\PSoC5/ErikaOS_cortex_mx_ee_cpu.inc **** /* Set a breakpoint */
 112:Generated_Source\PSoC5/ErikaOS_cortex_mx_ee_cpu.inc **** #define __breakpoint(value)	__ASM ("bkpt "#value)
 113:Generated_Source\PSoC5/ErikaOS_cortex_mx_ee_cpu.inc **** 
 114:Generated_Source\PSoC5/ErikaOS_cortex_mx_ee_cpu.inc **** #endif
 115:Generated_Source\PSoC5/ErikaOS_cortex_mx_ee_cpu.inc **** 
 116:Generated_Source\PSoC5/ErikaOS_cortex_mx_ee_cpu.inc **** /* ISR Priority representation type */
 117:Generated_Source\PSoC5/ErikaOS_cortex_mx_ee_cpu.inc **** typedef EE_UREG EE_TYPEISR2PRIO;
 118:Generated_Source\PSoC5/ErikaOS_cortex_mx_ee_cpu.inc **** 
 119:Generated_Source\PSoC5/ErikaOS_cortex_mx_ee_cpu.inc **** /* Thread IDs */
 120:Generated_Source\PSoC5/ErikaOS_cortex_mx_ee_cpu.inc **** typedef EE_INT32 EE_TID;
 121:Generated_Source\PSoC5/ErikaOS_cortex_mx_ee_cpu.inc **** 
 122:Generated_Source\PSoC5/ErikaOS_cortex_mx_ee_cpu.inc **** /* Thread IDs - unsigned version*/
 123:Generated_Source\PSoC5/ErikaOS_cortex_mx_ee_cpu.inc **** typedef EE_UINT32 EE_UTID;
 124:Generated_Source\PSoC5/ErikaOS_cortex_mx_ee_cpu.inc **** 
 125:Generated_Source\PSoC5/ErikaOS_cortex_mx_ee_cpu.inc **** /* Used by the common layer to decide whether to start a new thread */
 126:Generated_Source\PSoC5/ErikaOS_cortex_mx_ee_cpu.inc **** #define TID_IS_STACKED_MARK 0x80000000
 127:Generated_Source\PSoC5/ErikaOS_cortex_mx_ee_cpu.inc **** 
 128:Generated_Source\PSoC5/ErikaOS_cortex_mx_ee_cpu.inc **** /* EE_TYPEIRQ is currently unused */
 129:Generated_Source\PSoC5/ErikaOS_cortex_mx_ee_cpu.inc **** 
 130:Generated_Source\PSoC5/ErikaOS_cortex_mx_ee_cpu.inc **** /* XXX: define EE_TIME? */
 131:Generated_Source\PSoC5/ErikaOS_cortex_mx_ee_cpu.inc **** 
 132:Generated_Source\PSoC5/ErikaOS_cortex_mx_ee_cpu.inc **** /* Use the "standard" implementation */
 133:Generated_Source\PSoC5/ErikaOS_cortex_mx_ee_cpu.inc **** #include "ErikaOS_common_ee_hal_structs.inc"
 134:Generated_Source\PSoC5/ErikaOS_cortex_mx_ee_cpu.inc **** 
 135:Generated_Source\PSoC5/ErikaOS_cortex_mx_ee_cpu.inc **** /******************************************************************************
 136:Generated_Source\PSoC5/ErikaOS_cortex_mx_ee_cpu.inc ****  Application dependent data types
 137:Generated_Source\PSoC5/ErikaOS_cortex_mx_ee_cpu.inc ****  ******************************************************************************/
 138:Generated_Source\PSoC5/ErikaOS_cortex_mx_ee_cpu.inc **** 
 139:Generated_Source\PSoC5/ErikaOS_cortex_mx_ee_cpu.inc **** #ifdef	__HAS_TYPES_H__
 140:Generated_Source\PSoC5/ErikaOS_cortex_mx_ee_cpu.inc **** #include	"types.h"
 141:Generated_Source\PSoC5/ErikaOS_cortex_mx_ee_cpu.inc **** #endif
 142:Generated_Source\PSoC5/ErikaOS_cortex_mx_ee_cpu.inc **** 
 143:Generated_Source\PSoC5/ErikaOS_cortex_mx_ee_cpu.inc **** /******************************************************************************
 144:Generated_Source\PSoC5/ErikaOS_cortex_mx_ee_cpu.inc ****  CPU Peripherals
 145:Generated_Source\PSoC5/ErikaOS_cortex_mx_ee_cpu.inc ****  ******************************************************************************/
 146:Generated_Source\PSoC5/ErikaOS_cortex_mx_ee_cpu.inc **** 
 147:Generated_Source\PSoC5/ErikaOS_cortex_mx_ee_cpu.inc **** #ifdef __CORTEX_MX__
 148:Generated_Source\PSoC5/ErikaOS_cortex_mx_ee_cpu.inc **** #include "ErikaOS_cortex_mx_ee_nvic.inc"
 149:Generated_Source\PSoC5/ErikaOS_cortex_mx_ee_cpu.inc **** #include "ErikaOS_cortex_mx_ee_systick.inc"
 150:Generated_Source\PSoC5/ErikaOS_cortex_mx_ee_cpu.inc **** #endif
 151:Generated_Source\PSoC5/ErikaOS_cortex_mx_ee_cpu.inc **** 
 152:Generated_Source\PSoC5/ErikaOS_cortex_mx_ee_cpu.inc **** /******************************************************************************
 153:Generated_Source\PSoC5/ErikaOS_cortex_mx_ee_cpu.inc ****  HAL Variables
 154:Generated_Source\PSoC5/ErikaOS_cortex_mx_ee_cpu.inc ****  ******************************************************************************/
 155:Generated_Source\PSoC5/ErikaOS_cortex_mx_ee_cpu.inc **** 
 156:Generated_Source\PSoC5/ErikaOS_cortex_mx_ee_cpu.inc **** #ifdef __MULTI__
 157:Generated_Source\PSoC5/ErikaOS_cortex_mx_ee_cpu.inc **** 
 158:Generated_Source\PSoC5/ErikaOS_cortex_mx_ee_cpu.inc **** /* Top-of-stack of each private stack */
ARM GAS  C:\Users\agila\AppData\Local\Temp\cccLUxJg.s 			page 12


 159:Generated_Source\PSoC5/ErikaOS_cortex_mx_ee_cpu.inc **** extern struct EE_TOS EE_cortex_mx_system_tos[];
 160:Generated_Source\PSoC5/ErikaOS_cortex_mx_ee_cpu.inc **** //#define	EE_std_system_tos EE_cortex_mx_system_tos
 161:Generated_Source\PSoC5/ErikaOS_cortex_mx_ee_cpu.inc **** 
 162:Generated_Source\PSoC5/ErikaOS_cortex_mx_ee_cpu.inc **** /* Index of the current stack */
 163:Generated_Source\PSoC5/ErikaOS_cortex_mx_ee_cpu.inc **** extern EE_UREG EE_cortex_mx_active_tos;
 164:Generated_Source\PSoC5/ErikaOS_cortex_mx_ee_cpu.inc **** #define	EE_hal_active_tos EE_cortex_mx_active_tos
 165:Generated_Source\PSoC5/ErikaOS_cortex_mx_ee_cpu.inc **** 
 166:Generated_Source\PSoC5/ErikaOS_cortex_mx_ee_cpu.inc **** /*extern	EE_UREG EE_pic30_thread_tos[];
 167:Generated_Source\PSoC5/ErikaOS_cortex_mx_ee_cpu.inc **** #define	EE_std_thread_tos EE_pic30_thread_tos */
 168:Generated_Source\PSoC5/ErikaOS_cortex_mx_ee_cpu.inc **** #endif /* __MULTI__ */
 169:Generated_Source\PSoC5/ErikaOS_cortex_mx_ee_cpu.inc **** 
 170:Generated_Source\PSoC5/ErikaOS_cortex_mx_ee_cpu.inc **** /*********************************************************************
 171:Generated_Source\PSoC5/ErikaOS_cortex_mx_ee_cpu.inc ****  Cortex M0 interrupt disabling/enabling
 172:Generated_Source\PSoC5/ErikaOS_cortex_mx_ee_cpu.inc ****  *********************************************************************/
 173:Generated_Source\PSoC5/ErikaOS_cortex_mx_ee_cpu.inc **** 
 174:Generated_Source\PSoC5/ErikaOS_cortex_mx_ee_cpu.inc **** /* Used to check the value returned by EE_cortex_mx_disableIRQ */
 175:Generated_Source\PSoC5/ErikaOS_cortex_mx_ee_cpu.inc **** #define EE_cortex_mx_are_IRQs_enabled(ie) ((ie) ^ 1)
 176:Generated_Source\PSoC5/ErikaOS_cortex_mx_ee_cpu.inc **** 
 177:Generated_Source\PSoC5/ErikaOS_cortex_mx_ee_cpu.inc **** /**
 178:Generated_Source\PSoC5/ErikaOS_cortex_mx_ee_cpu.inc ****  * Enable interrupts
 179:Generated_Source\PSoC5/ErikaOS_cortex_mx_ee_cpu.inc ****  */
 180:Generated_Source\PSoC5/ErikaOS_cortex_mx_ee_cpu.inc **** __INLINE__ void  EE_cortex_mx_enableIRQ(void)
 181:Generated_Source\PSoC5/ErikaOS_cortex_mx_ee_cpu.inc **** {
 182:Generated_Source\PSoC5/ErikaOS_cortex_mx_ee_cpu.inc **** #ifdef __IAR__
 183:Generated_Source\PSoC5/ErikaOS_cortex_mx_ee_cpu.inc **** 	__ASM ("cpsie i");
 184:Generated_Source\PSoC5/ErikaOS_cortex_mx_ee_cpu.inc **** #else	/* __IAR__ */
 185:Generated_Source\PSoC5/ErikaOS_cortex_mx_ee_cpu.inc **** #ifdef __CCS__
 186:Generated_Source\PSoC5/ErikaOS_cortex_mx_ee_cpu.inc **** 	__ASM ("    cpsie    i\n");
 187:Generated_Source\PSoC5/ErikaOS_cortex_mx_ee_cpu.inc **** #else	/* __CCS__ */
 188:Generated_Source\PSoC5/ErikaOS_cortex_mx_ee_cpu.inc **** #ifdef __KEIL__
 189:Generated_Source\PSoC5/ErikaOS_cortex_mx_ee_cpu.inc **** 	__enable_irq();
 190:Generated_Source\PSoC5/ErikaOS_cortex_mx_ee_cpu.inc **** #else	/* __KEIL__ */
 191:Generated_Source\PSoC5/ErikaOS_cortex_mx_ee_cpu.inc **** 	__ASM volatile("cpsie i");
 192:Generated_Source\PSoC5/ErikaOS_cortex_mx_ee_cpu.inc **** #endif	/* !__KEIL__ */
 193:Generated_Source\PSoC5/ErikaOS_cortex_mx_ee_cpu.inc **** #endif	/* !__CCS__ */
 194:Generated_Source\PSoC5/ErikaOS_cortex_mx_ee_cpu.inc **** #endif	/* !__IAR__ */
 195:Generated_Source\PSoC5/ErikaOS_cortex_mx_ee_cpu.inc **** }
 196:Generated_Source\PSoC5/ErikaOS_cortex_mx_ee_cpu.inc **** 
 197:Generated_Source\PSoC5/ErikaOS_cortex_mx_ee_cpu.inc **** /**
 198:Generated_Source\PSoC5/ErikaOS_cortex_mx_ee_cpu.inc ****  * Disable interrupts
 199:Generated_Source\PSoC5/ErikaOS_cortex_mx_ee_cpu.inc ****  */
 200:Generated_Source\PSoC5/ErikaOS_cortex_mx_ee_cpu.inc **** __INLINE__ void  EE_cortex_mx_disableIRQ(void)
 201:Generated_Source\PSoC5/ErikaOS_cortex_mx_ee_cpu.inc **** {
 202:Generated_Source\PSoC5/ErikaOS_cortex_mx_ee_cpu.inc **** #ifdef __IAR__
 203:Generated_Source\PSoC5/ErikaOS_cortex_mx_ee_cpu.inc **** 	__ASM ("cpsid i");
 204:Generated_Source\PSoC5/ErikaOS_cortex_mx_ee_cpu.inc **** #else	/* __IAR__ */
 205:Generated_Source\PSoC5/ErikaOS_cortex_mx_ee_cpu.inc **** #ifdef __CCS__
 206:Generated_Source\PSoC5/ErikaOS_cortex_mx_ee_cpu.inc **** 	__ASM ("    cpsid    i\n");
 207:Generated_Source\PSoC5/ErikaOS_cortex_mx_ee_cpu.inc **** #else	/* __CCS__ */
 208:Generated_Source\PSoC5/ErikaOS_cortex_mx_ee_cpu.inc **** #ifdef __KEIL__
 209:Generated_Source\PSoC5/ErikaOS_cortex_mx_ee_cpu.inc **** 	__disable_irq();
 210:Generated_Source\PSoC5/ErikaOS_cortex_mx_ee_cpu.inc **** #else	/* __KEIL__ */
 211:Generated_Source\PSoC5/ErikaOS_cortex_mx_ee_cpu.inc **** 	__ASM volatile("cpsid i");
 212:Generated_Source\PSoC5/ErikaOS_cortex_mx_ee_cpu.inc **** #endif	/* !__KEIL__ */
 213:Generated_Source\PSoC5/ErikaOS_cortex_mx_ee_cpu.inc **** #endif	/* !__CCS__ */
 214:Generated_Source\PSoC5/ErikaOS_cortex_mx_ee_cpu.inc **** #endif	/* !__IAR__ */
 215:Generated_Source\PSoC5/ErikaOS_cortex_mx_ee_cpu.inc **** }
ARM GAS  C:\Users\agila\AppData\Local\Temp\cccLUxJg.s 			page 13


 216:Generated_Source\PSoC5/ErikaOS_cortex_mx_ee_cpu.inc **** 
 217:Generated_Source\PSoC5/ErikaOS_cortex_mx_ee_cpu.inc **** /**
 218:Generated_Source\PSoC5/ErikaOS_cortex_mx_ee_cpu.inc ****  * Resume interrupts
 219:Generated_Source\PSoC5/ErikaOS_cortex_mx_ee_cpu.inc ****  */
 220:Generated_Source\PSoC5/ErikaOS_cortex_mx_ee_cpu.inc **** __INLINE__ void  EE_cortex_mx_resumeIRQ(EE_FREG f)
 221:Generated_Source\PSoC5/ErikaOS_cortex_mx_ee_cpu.inc **** {
 222:Generated_Source\PSoC5/ErikaOS_cortex_mx_ee_cpu.inc **** #ifdef __IAR__
 223:Generated_Source\PSoC5/ErikaOS_cortex_mx_ee_cpu.inc **** 	__set_PRIMASK(f);
 224:Generated_Source\PSoC5/ErikaOS_cortex_mx_ee_cpu.inc **** #else	/* __IAR__ */
 225:Generated_Source\PSoC5/ErikaOS_cortex_mx_ee_cpu.inc **** #ifdef __CCS__
 226:Generated_Source\PSoC5/ErikaOS_cortex_mx_ee_cpu.inc **** 	__ASM ("    msr    primask, r0\n");
 227:Generated_Source\PSoC5/ErikaOS_cortex_mx_ee_cpu.inc **** #else	/* __CCS__ */
 228:Generated_Source\PSoC5/ErikaOS_cortex_mx_ee_cpu.inc **** #ifdef __KEIL__
 229:Generated_Source\PSoC5/ErikaOS_cortex_mx_ee_cpu.inc **** 	register EE_FREG PRIMASK __ASM("primask");
 230:Generated_Source\PSoC5/ErikaOS_cortex_mx_ee_cpu.inc **** 	PRIMASK = f;
 231:Generated_Source\PSoC5/ErikaOS_cortex_mx_ee_cpu.inc **** #else	/* __KEIL__ */
 232:Generated_Source\PSoC5/ErikaOS_cortex_mx_ee_cpu.inc **** 	__ASM volatile("msr primask, %0" :: "r" (f));
 233:Generated_Source\PSoC5/ErikaOS_cortex_mx_ee_cpu.inc **** #endif	/* !__KEIL__ */
 234:Generated_Source\PSoC5/ErikaOS_cortex_mx_ee_cpu.inc **** #endif	/* !__CCS__ */
 235:Generated_Source\PSoC5/ErikaOS_cortex_mx_ee_cpu.inc **** #endif	/* !__IAR__ */
 236:Generated_Source\PSoC5/ErikaOS_cortex_mx_ee_cpu.inc **** }
 237:Generated_Source\PSoC5/ErikaOS_cortex_mx_ee_cpu.inc **** 
 238:Generated_Source\PSoC5/ErikaOS_cortex_mx_ee_cpu.inc **** /**
 239:Generated_Source\PSoC5/ErikaOS_cortex_mx_ee_cpu.inc ****  * Suspend interrupts
 240:Generated_Source\PSoC5/ErikaOS_cortex_mx_ee_cpu.inc ****  */
 241:Generated_Source\PSoC5/ErikaOS_cortex_mx_ee_cpu.inc **** __INLINE__ EE_FREG  EE_cortex_mx_suspendIRQ(void)
 242:Generated_Source\PSoC5/ErikaOS_cortex_mx_ee_cpu.inc **** {
 243:Generated_Source\PSoC5/ErikaOS_cortex_mx_ee_cpu.inc **** #ifndef __CCS__
 244:Generated_Source\PSoC5/ErikaOS_cortex_mx_ee_cpu.inc **** 	EE_FREG istat;
 245:Generated_Source\PSoC5/ErikaOS_cortex_mx_ee_cpu.inc **** #endif
 246:Generated_Source\PSoC5/ErikaOS_cortex_mx_ee_cpu.inc **** #ifdef __IAR__
 247:Generated_Source\PSoC5/ErikaOS_cortex_mx_ee_cpu.inc **** 	 istat = __get_PRIMASK();
 248:Generated_Source\PSoC5/ErikaOS_cortex_mx_ee_cpu.inc **** 	__ASM ("cpsid i");
 249:Generated_Source\PSoC5/ErikaOS_cortex_mx_ee_cpu.inc **** #else	/* __IAR__ */
 250:Generated_Source\PSoC5/ErikaOS_cortex_mx_ee_cpu.inc **** #ifdef __CCS__
 251:Generated_Source\PSoC5/ErikaOS_cortex_mx_ee_cpu.inc **** 	__ASM ("    mrs     r0, primask\n"
 252:Generated_Source\PSoC5/ErikaOS_cortex_mx_ee_cpu.inc **** 	       "    cpsid   i\n"
 253:Generated_Source\PSoC5/ErikaOS_cortex_mx_ee_cpu.inc **** 	       "    bx      lr\n");
 254:Generated_Source\PSoC5/ErikaOS_cortex_mx_ee_cpu.inc **** #else	/* __CCS__ */
 255:Generated_Source\PSoC5/ErikaOS_cortex_mx_ee_cpu.inc **** #ifdef __KEIL__
 256:Generated_Source\PSoC5/ErikaOS_cortex_mx_ee_cpu.inc **** 	register EE_FREG PRIMASK __ASM("primask");
 257:Generated_Source\PSoC5/ErikaOS_cortex_mx_ee_cpu.inc **** 	istat = PRIMASK;
 258:Generated_Source\PSoC5/ErikaOS_cortex_mx_ee_cpu.inc **** 	__disable_irq();
 259:Generated_Source\PSoC5/ErikaOS_cortex_mx_ee_cpu.inc **** #else	/* __KEIL__ */
 260:Generated_Source\PSoC5/ErikaOS_cortex_mx_ee_cpu.inc **** 	__ASM volatile ("mrs %0, primask" : "=r" (istat) );
  60              		.loc 4 260 0
  61              		.syntax unified
  62              	@ 260 "Generated_Source\PSoC5\ErikaOS_cortex_mx_ee_cpu.inc" 1
  63 000a EFF31085 		mrs r5, primask
  64              	@ 0 "" 2
  65              	.LVL2:
 261:Generated_Source\PSoC5/ErikaOS_cortex_mx_ee_cpu.inc **** 	__ASM volatile ("cpsid i");
  66              		.loc 4 261 0
  67              	@ 261 "Generated_Source\PSoC5\ErikaOS_cortex_mx_ee_cpu.inc" 1
  68 000e 72B6     		cpsid i
  69              	@ 0 "" 2
  70              	.LVL3:
ARM GAS  C:\Users\agila\AppData\Local\Temp\cccLUxJg.s 			page 14


  71              		.thumb
  72              		.syntax unified
  73              	.LBE58:
  74              	.LBE57:
  75              	.LBE56:
  92:Generated_Source\PSoC5/ErikaOS_ee_lockres.c ****   /* Error Value */
  93:Generated_Source\PSoC5/ErikaOS_ee_lockres.c ****   register StatusType ev;
  94:Generated_Source\PSoC5/ErikaOS_ee_lockres.c ****   /* Primitive Lock Variable */
  95:Generated_Source\PSoC5/ErikaOS_ee_lockres.c **** #if (!defined(__EE_MEMORY_PROTECTION__)) || (defined(__OO_ISR2_RESOURCES__))
  96:Generated_Source\PSoC5/ErikaOS_ee_lockres.c ****   register EE_FREG flag;
  97:Generated_Source\PSoC5/ErikaOS_ee_lockres.c **** #endif /* !__EE_MEMORY_PROTECTION__ || __OO_ISR2_RESOURCES__ */
  98:Generated_Source\PSoC5/ErikaOS_ee_lockres.c **** #ifdef __MSRP__
  99:Generated_Source\PSoC5/ErikaOS_ee_lockres.c ****   register EE_UREG isGlobal;
 100:Generated_Source\PSoC5/ErikaOS_ee_lockres.c **** #endif /* __MSRP__ */
 101:Generated_Source\PSoC5/ErikaOS_ee_lockres.c **** #if (defined(__OO_EXTENDED_STATUS__)) || (defined(__OO_ORTI_PRIORITY__)) \
 102:Generated_Source\PSoC5/ErikaOS_ee_lockres.c ****   || (defined(__OO_ISR2_RESOURCES__))
 103:Generated_Source\PSoC5/ErikaOS_ee_lockres.c ****   register TaskType current = EE_stk_queryfirst();
 104:Generated_Source\PSoC5/ErikaOS_ee_lockres.c **** #endif /* __OO_EXTENDED_STATUS__ || __OO_ORTI_PRIORITY__ ||
 105:Generated_Source\PSoC5/ErikaOS_ee_lockres.c ****   __OO_ISR2_RESOURCES__ */
 106:Generated_Source\PSoC5/ErikaOS_ee_lockres.c **** #ifdef __OO_EXTENDED_STATUS__
 107:Generated_Source\PSoC5/ErikaOS_ee_lockres.c ****   /* To cache inside task info */
 108:Generated_Source\PSoC5/ErikaOS_ee_lockres.c ****   register EE_TYPEBOOL inside_task = (EE_hal_get_IRQ_nesting_level() == 0U);
 109:Generated_Source\PSoC5/ErikaOS_ee_lockres.c **** #endif /* __OO_EXTENDED_STATUS__ */
 110:Generated_Source\PSoC5/ErikaOS_ee_lockres.c **** 
 111:Generated_Source\PSoC5/ErikaOS_ee_lockres.c ****   /* Primitive Lock Variable */
 112:Generated_Source\PSoC5/ErikaOS_ee_lockres.c ****   EE_OS_ENTER_CRITICAL_SECTION();
 113:Generated_Source\PSoC5/ErikaOS_ee_lockres.c **** 
 114:Generated_Source\PSoC5/ErikaOS_ee_lockres.c ****   EE_ORTI_set_service_in(EE_SERVICETRACE_GETRESOURCE);
 115:Generated_Source\PSoC5/ErikaOS_ee_lockres.c **** 
 116:Generated_Source\PSoC5/ErikaOS_ee_lockres.c ****   EE_as_monitoring_the_stack();
 117:Generated_Source\PSoC5/ErikaOS_ee_lockres.c **** 
 118:Generated_Source\PSoC5/ErikaOS_ee_lockres.c **** #ifdef __MSRP__
 119:Generated_Source\PSoC5/ErikaOS_ee_lockres.c ****   isGlobal = EE_oo_isGlobal(ResID);
 120:Generated_Source\PSoC5/ErikaOS_ee_lockres.c ****   ResID = ResID & ~EE_GLOBAL_MUTEX;
 121:Generated_Source\PSoC5/ErikaOS_ee_lockres.c **** #endif /* __MSRP__ */
 122:Generated_Source\PSoC5/ErikaOS_ee_lockres.c **** 
 123:Generated_Source\PSoC5/ErikaOS_ee_lockres.c **** #ifdef EE_SERVICE_PROTECTION__
 124:Generated_Source\PSoC5/ErikaOS_ee_lockres.c ****   /*  [OS093]: If interrupts are disabled/suspended by a Task/OsIsr and the
 125:Generated_Source\PSoC5/ErikaOS_ee_lockres.c ****        Task/OsIsr calls any OS service (excluding the interrupt services)
 126:Generated_Source\PSoC5/ErikaOS_ee_lockres.c ****        then the Operating System shall ignore the service AND shall return
 127:Generated_Source\PSoC5/ErikaOS_ee_lockres.c ****        E_OS_DISABLEDINT if the service returns a StatusType value. */
 128:Generated_Source\PSoC5/ErikaOS_ee_lockres.c ****   /*  [OS088]: If an OS-Application makes a service call from the wrong context
 129:Generated_Source\PSoC5/ErikaOS_ee_lockres.c ****        AND is currently not inside a Category 1 ISR the Operating System module
 130:Generated_Source\PSoC5/ErikaOS_ee_lockres.c ****        shall not perform the requested action (the service call shall have no
 131:Generated_Source\PSoC5/ErikaOS_ee_lockres.c ****        effect), and return E_OS_CALLEVEL (see [12], section 13.1) or the
 132:Generated_Source\PSoC5/ErikaOS_ee_lockres.c ****        "invalid value" of the service. (BSW11009, BSW11013) */
 133:Generated_Source\PSoC5/ErikaOS_ee_lockres.c ****   /* GetResource is callable by Task and ISR2 */
 134:Generated_Source\PSoC5/ErikaOS_ee_lockres.c ****   if ( EE_as_execution_context > ISR2_Context ) {
 135:Generated_Source\PSoC5/ErikaOS_ee_lockres.c ****     ev = E_OS_CALLEVEL;
 136:Generated_Source\PSoC5/ErikaOS_ee_lockres.c ****   } else if ( EE_oo_check_disableint_error() ) {
 137:Generated_Source\PSoC5/ErikaOS_ee_lockres.c ****     ev = E_OS_DISABLEDINT;
 138:Generated_Source\PSoC5/ErikaOS_ee_lockres.c ****   } else
 139:Generated_Source\PSoC5/ErikaOS_ee_lockres.c **** #endif /* EE_SERVICE_PROTECTION__ */
 140:Generated_Source\PSoC5/ErikaOS_ee_lockres.c **** 
 141:Generated_Source\PSoC5/ErikaOS_ee_lockres.c **** #if (defined(EE_AS_OSAPPLICATIONS__)) && (defined(EE_SERVICE_PROTECTION__))
 142:Generated_Source\PSoC5/ErikaOS_ee_lockres.c ****   /* no comparison for ResID < 0, the type is unsigned! */
 143:Generated_Source\PSoC5/ErikaOS_ee_lockres.c ****   if ( ResID >= EE_MAX_RESOURCE ) {
ARM GAS  C:\Users\agila\AppData\Local\Temp\cccLUxJg.s 			page 15


 144:Generated_Source\PSoC5/ErikaOS_ee_lockres.c ****     ev = E_OS_ID;
 145:Generated_Source\PSoC5/ErikaOS_ee_lockres.c ****   } else if ( EE_RESOURCE_ACCESS_ERR(ResID, EE_as_active_app) ) {
 146:Generated_Source\PSoC5/ErikaOS_ee_lockres.c ****     ev = E_OS_ACCESS;
 147:Generated_Source\PSoC5/ErikaOS_ee_lockres.c ****   } else
 148:Generated_Source\PSoC5/ErikaOS_ee_lockres.c **** #elif defined(__OO_EXTENDED_STATUS__)
 149:Generated_Source\PSoC5/ErikaOS_ee_lockres.c ****   /* no comparison for ResID < 0, the type is unsigned! */
 150:Generated_Source\PSoC5/ErikaOS_ee_lockres.c ****   if ( ResID >= EE_MAX_RESOURCE ) {
  76              		.loc 1 150 0
  77 0010 0128     		cmp	r0, #1
  78 0012 51D8     		bhi	.L10
 151:Generated_Source\PSoC5/ErikaOS_ee_lockres.c ****     ev = E_OS_ID;
 152:Generated_Source\PSoC5/ErikaOS_ee_lockres.c ****   } else
 153:Generated_Source\PSoC5/ErikaOS_ee_lockres.c **** #endif /* EE_AS_OSAPPLICATIONS__ || E_SERVICE_PROTECTION__ ||
 154:Generated_Source\PSoC5/ErikaOS_ee_lockres.c **** __OO_EXTENDED_STATUS__ */
 155:Generated_Source\PSoC5/ErikaOS_ee_lockres.c **** #ifdef __OO_EXTENDED_STATUS__
 156:Generated_Source\PSoC5/ErikaOS_ee_lockres.c ****   if ( EE_resource_locked[ResID] != EE_FALSE ) {
  79              		.loc 1 156 0
  80 0014 3049     		ldr	r1, .L19+8
  81 0016 51F82010 		ldr	r1, [r1, r0, lsl #2]
  82 001a 0029     		cmp	r1, #0
  83 001c 4ED1     		bne	.L11
 157:Generated_Source\PSoC5/ErikaOS_ee_lockres.c ****     /* Check if the resource is already gotten */
 158:Generated_Source\PSoC5/ErikaOS_ee_lockres.c ****     ev = E_OS_ACCESS;
 159:Generated_Source\PSoC5/ErikaOS_ee_lockres.c ****   } else if ( (inside_task != EE_FALSE) && ((current == EE_NIL) ||
  84              		.loc 1 159 0
  85 001e 53B9     		cbnz	r3, .L3
  86              		.loc 1 159 0 is_stmt 0 discriminator 1
  87 0020 B2F1FF3F 		cmp	r2, #-1
  88 0024 4CD0     		beq	.L12
 160:Generated_Source\PSoC5/ErikaOS_ee_lockres.c ****     (EE_th_ready_prio[current] > EE_resource_ceiling[ResID])) )
  89              		.loc 1 160 0 is_stmt 1 discriminator 2
  90 0026 2D49     		ldr	r1, .L19+12
  91 0028 51F82240 		ldr	r4, [r1, r2, lsl #2]
  92 002c 2C49     		ldr	r1, .L19+16
  93 002e 51F82010 		ldr	r1, [r1, r0, lsl #2]
 159:Generated_Source\PSoC5/ErikaOS_ee_lockres.c ****     (EE_th_ready_prio[current] > EE_resource_ceiling[ResID])) )
  94              		.loc 1 159 0 discriminator 2
  95 0032 8C42     		cmp	r4, r1
  96 0034 46D8     		bhi	.L13
  97              	.L3:
 161:Generated_Source\PSoC5/ErikaOS_ee_lockres.c ****   {
 162:Generated_Source\PSoC5/ErikaOS_ee_lockres.c ****     /* If I'm in a Task check invalid task and ceiling */
 163:Generated_Source\PSoC5/ErikaOS_ee_lockres.c ****     ev = E_OS_ACCESS;
 164:Generated_Source\PSoC5/ErikaOS_ee_lockres.c ****   } else
 165:Generated_Source\PSoC5/ErikaOS_ee_lockres.c **** #ifdef __OO_ISR2_RESOURCES__
 166:Generated_Source\PSoC5/ErikaOS_ee_lockres.c ****   if ( (inside_task == EE_FALSE) &&
  98              		.loc 1 166 0
  99 0036 93B1     		cbz	r3, .L4
 167:Generated_Source\PSoC5/ErikaOS_ee_lockres.c ****     (EE_hal_check_int_prio_if_higher(EE_resource_isr2_priority[ResID]) !=
 100              		.loc 1 167 0 discriminator 1
 101 0038 2A49     		ldr	r1, .L19+20
 102 003a 51F82040 		ldr	r4, [r1, r0, lsl #2]
 103              	.LVL4:
 104              	.LBB59:
 105              	.LBB60:
 106              	.LBB61:
 107              	.LBB62:
ARM GAS  C:\Users\agila\AppData\Local\Temp\cccLUxJg.s 			page 16


 262:Generated_Source\PSoC5/ErikaOS_cortex_mx_ee_cpu.inc **** #endif	/* !__KEIL__ */
 263:Generated_Source\PSoC5/ErikaOS_cortex_mx_ee_cpu.inc **** #endif	/* !__CCS__ */
 264:Generated_Source\PSoC5/ErikaOS_cortex_mx_ee_cpu.inc **** #endif	/* !__IAR__ */
 265:Generated_Source\PSoC5/ErikaOS_cortex_mx_ee_cpu.inc **** #ifdef __CCS__
 266:Generated_Source\PSoC5/ErikaOS_cortex_mx_ee_cpu.inc **** 	return 0;
 267:Generated_Source\PSoC5/ErikaOS_cortex_mx_ee_cpu.inc **** #else
 268:Generated_Source\PSoC5/ErikaOS_cortex_mx_ee_cpu.inc **** 	return istat;
 269:Generated_Source\PSoC5/ErikaOS_cortex_mx_ee_cpu.inc **** #endif
 270:Generated_Source\PSoC5/ErikaOS_cortex_mx_ee_cpu.inc **** }
 271:Generated_Source\PSoC5/ErikaOS_cortex_mx_ee_cpu.inc **** 
 272:Generated_Source\PSoC5/ErikaOS_cortex_mx_ee_cpu.inc **** /**
 273:Generated_Source\PSoC5/ErikaOS_cortex_mx_ee_cpu.inc ****  * Return true (not 0) if IRQs are enabled, 0 (false) if IRQ are disabled.
 274:Generated_Source\PSoC5/ErikaOS_cortex_mx_ee_cpu.inc ****  */
 275:Generated_Source\PSoC5/ErikaOS_cortex_mx_ee_cpu.inc **** __INLINE__ EE_UINT32  EE_cortex_mx_get_IRQ_enabled(void)
 276:Generated_Source\PSoC5/ErikaOS_cortex_mx_ee_cpu.inc **** {
 277:Generated_Source\PSoC5/ErikaOS_cortex_mx_ee_cpu.inc **** #ifndef __CCS__
 278:Generated_Source\PSoC5/ErikaOS_cortex_mx_ee_cpu.inc **** 	EE_UREG ie;
 279:Generated_Source\PSoC5/ErikaOS_cortex_mx_ee_cpu.inc **** #endif
 280:Generated_Source\PSoC5/ErikaOS_cortex_mx_ee_cpu.inc **** #ifdef __IAR__
 281:Generated_Source\PSoC5/ErikaOS_cortex_mx_ee_cpu.inc **** 	ie = __get_PRIMASK();
 282:Generated_Source\PSoC5/ErikaOS_cortex_mx_ee_cpu.inc **** #else	/* __IAR__ */
 283:Generated_Source\PSoC5/ErikaOS_cortex_mx_ee_cpu.inc **** #ifdef __CCS__
 284:Generated_Source\PSoC5/ErikaOS_cortex_mx_ee_cpu.inc **** 	__ASM ("    MRS     r0, PRIMASK\n"
 285:Generated_Source\PSoC5/ErikaOS_cortex_mx_ee_cpu.inc **** 	       "    EOR     r0, #1\n"
 286:Generated_Source\PSoC5/ErikaOS_cortex_mx_ee_cpu.inc **** 	       "    bx      lr\n");
 287:Generated_Source\PSoC5/ErikaOS_cortex_mx_ee_cpu.inc **** #else	/* __CCS__ */
 288:Generated_Source\PSoC5/ErikaOS_cortex_mx_ee_cpu.inc **** #ifdef __KEIL__
 289:Generated_Source\PSoC5/ErikaOS_cortex_mx_ee_cpu.inc **** 	register EE_FREG PRIMASK __ASM("primask");
 290:Generated_Source\PSoC5/ErikaOS_cortex_mx_ee_cpu.inc **** 	ie = PRIMASK;
 291:Generated_Source\PSoC5/ErikaOS_cortex_mx_ee_cpu.inc **** #else	/* __KEIL__ */
 292:Generated_Source\PSoC5/ErikaOS_cortex_mx_ee_cpu.inc **** 	__ASM volatile ("MRS %0, primask" : "=r" (ie) );
 293:Generated_Source\PSoC5/ErikaOS_cortex_mx_ee_cpu.inc **** #endif	/* !__KEIL__ */
 294:Generated_Source\PSoC5/ErikaOS_cortex_mx_ee_cpu.inc **** #endif	/* !__CCS__ */
 295:Generated_Source\PSoC5/ErikaOS_cortex_mx_ee_cpu.inc **** #endif	/* !__IAR__ */
 296:Generated_Source\PSoC5/ErikaOS_cortex_mx_ee_cpu.inc **** #ifdef __CCS__
 297:Generated_Source\PSoC5/ErikaOS_cortex_mx_ee_cpu.inc **** 	return 0;
 298:Generated_Source\PSoC5/ErikaOS_cortex_mx_ee_cpu.inc **** #else
 299:Generated_Source\PSoC5/ErikaOS_cortex_mx_ee_cpu.inc **** 	return EE_cortex_mx_are_IRQs_enabled(ie);
 300:Generated_Source\PSoC5/ErikaOS_cortex_mx_ee_cpu.inc **** #endif
 301:Generated_Source\PSoC5/ErikaOS_cortex_mx_ee_cpu.inc **** }
 302:Generated_Source\PSoC5/ErikaOS_cortex_mx_ee_cpu.inc **** 
 303:Generated_Source\PSoC5/ErikaOS_cortex_mx_ee_cpu.inc **** __INLINE__ EE_TYPEISR2PRIO  EE_cortex_mx_get_int_prio(void)
 304:Generated_Source\PSoC5/ErikaOS_cortex_mx_ee_cpu.inc **** {
 305:Generated_Source\PSoC5/ErikaOS_cortex_mx_ee_cpu.inc **** #ifdef __CORTEX_M4__
 306:Generated_Source\PSoC5/ErikaOS_cortex_mx_ee_cpu.inc **** 
 307:Generated_Source\PSoC5/ErikaOS_cortex_mx_ee_cpu.inc **** #ifndef __CCS__
 308:Generated_Source\PSoC5/ErikaOS_cortex_mx_ee_cpu.inc **** 	register EE_UREG prio;
 309:Generated_Source\PSoC5/ErikaOS_cortex_mx_ee_cpu.inc **** #ifdef	__KEIL__
 310:Generated_Source\PSoC5/ErikaOS_cortex_mx_ee_cpu.inc **** 	register EE_FREG BASEPRI __ASM("basepri");
 311:Generated_Source\PSoC5/ErikaOS_cortex_mx_ee_cpu.inc **** #endif
 312:Generated_Source\PSoC5/ErikaOS_cortex_mx_ee_cpu.inc **** 
 313:Generated_Source\PSoC5/ErikaOS_cortex_mx_ee_cpu.inc **** #endif
 314:Generated_Source\PSoC5/ErikaOS_cortex_mx_ee_cpu.inc **** 
 315:Generated_Source\PSoC5/ErikaOS_cortex_mx_ee_cpu.inc **** #ifdef __CCS__
 316:Generated_Source\PSoC5/ErikaOS_cortex_mx_ee_cpu.inc **** 	/* NVIC_INT_PRI_S = 5 */
 317:Generated_Source\PSoC5/ErikaOS_cortex_mx_ee_cpu.inc **** 	__ASM ("    MRS     R0, BASEPRI\n"
 318:Generated_Source\PSoC5/ErikaOS_cortex_mx_ee_cpu.inc **** 	       "    ASR     R0, #5\n"
ARM GAS  C:\Users\agila\AppData\Local\Temp\cccLUxJg.s 			page 17


 319:Generated_Source\PSoC5/ErikaOS_cortex_mx_ee_cpu.inc **** 	       "    BLX     LR\n");
 320:Generated_Source\PSoC5/ErikaOS_cortex_mx_ee_cpu.inc **** #else	/* __CCS__ */
 321:Generated_Source\PSoC5/ErikaOS_cortex_mx_ee_cpu.inc **** #ifdef __KEIL__
 322:Generated_Source\PSoC5/ErikaOS_cortex_mx_ee_cpu.inc **** 	prio = BASEPRI;
 323:Generated_Source\PSoC5/ErikaOS_cortex_mx_ee_cpu.inc **** #else	/* __KEIL__ */
 324:Generated_Source\PSoC5/ErikaOS_cortex_mx_ee_cpu.inc **** #ifdef __GNU__
 325:Generated_Source\PSoC5/ErikaOS_cortex_mx_ee_cpu.inc **** 	__ASM volatile("MRS %0, BASEPRI" : "=r" (prio) :: );
 108              		.loc 4 325 0 discriminator 1
 109              		.syntax unified
 110              	@ 325 "Generated_Source\PSoC5\ErikaOS_cortex_mx_ee_cpu.inc" 1
 111 003e EFF31181 		MRS r1, BASEPRI
 112              	@ 0 "" 2
 113              		.thumb
 114              		.syntax unified
 115              	.LBE62:
 116              	.LBE61:
 117              		.file 5 "Generated_Source\\PSoC5\\ErikaOS_cortex_mx_ee_internal.inc"
   1:Generated_Source\PSoC5/ErikaOS_cortex_mx_ee_internal.inc **** /* ###*B*###
   2:Generated_Source\PSoC5/ErikaOS_cortex_mx_ee_internal.inc ****  * ERIKA Enterprise - a tiny RTOS for small microcontrollers
   3:Generated_Source\PSoC5/ErikaOS_cortex_mx_ee_internal.inc ****  *
   4:Generated_Source\PSoC5/ErikaOS_cortex_mx_ee_internal.inc ****  * Copyright (C) 2002-2011  Evidence Srl
   5:Generated_Source\PSoC5/ErikaOS_cortex_mx_ee_internal.inc ****  *
   6:Generated_Source\PSoC5/ErikaOS_cortex_mx_ee_internal.inc ****  * This file is part of ERIKA Enterprise.
   7:Generated_Source\PSoC5/ErikaOS_cortex_mx_ee_internal.inc ****  *
   8:Generated_Source\PSoC5/ErikaOS_cortex_mx_ee_internal.inc ****  * ERIKA Enterprise is free software; you can redistribute it
   9:Generated_Source\PSoC5/ErikaOS_cortex_mx_ee_internal.inc ****  * and/or modify it under the terms of the GNU General Public License
  10:Generated_Source\PSoC5/ErikaOS_cortex_mx_ee_internal.inc ****  * version 2 as published by the Free Software Foundation, 
  11:Generated_Source\PSoC5/ErikaOS_cortex_mx_ee_internal.inc ****  * (with a special exception described below).
  12:Generated_Source\PSoC5/ErikaOS_cortex_mx_ee_internal.inc ****  *
  13:Generated_Source\PSoC5/ErikaOS_cortex_mx_ee_internal.inc ****  * Linking this code statically or dynamically with other modules is
  14:Generated_Source\PSoC5/ErikaOS_cortex_mx_ee_internal.inc ****  * making a combined work based on this code.  Thus, the terms and
  15:Generated_Source\PSoC5/ErikaOS_cortex_mx_ee_internal.inc ****  * conditions of the GNU General Public License cover the whole
  16:Generated_Source\PSoC5/ErikaOS_cortex_mx_ee_internal.inc ****  * combination.
  17:Generated_Source\PSoC5/ErikaOS_cortex_mx_ee_internal.inc ****  *
  18:Generated_Source\PSoC5/ErikaOS_cortex_mx_ee_internal.inc ****  * As a special exception, the copyright holders of this library give you
  19:Generated_Source\PSoC5/ErikaOS_cortex_mx_ee_internal.inc ****  * permission to link this code with independent modules to produce an
  20:Generated_Source\PSoC5/ErikaOS_cortex_mx_ee_internal.inc ****  * executable, regardless of the license terms of these independent
  21:Generated_Source\PSoC5/ErikaOS_cortex_mx_ee_internal.inc ****  * modules, and to copy and distribute the resulting executable under
  22:Generated_Source\PSoC5/ErikaOS_cortex_mx_ee_internal.inc ****  * terms of your choice, provided that you also meet, for each linked
  23:Generated_Source\PSoC5/ErikaOS_cortex_mx_ee_internal.inc ****  * independent module, the terms and conditions of the license of that
  24:Generated_Source\PSoC5/ErikaOS_cortex_mx_ee_internal.inc ****  * module.  An independent module is a module which is not derived from
  25:Generated_Source\PSoC5/ErikaOS_cortex_mx_ee_internal.inc ****  * or based on this library.  If you modify this code, you may extend
  26:Generated_Source\PSoC5/ErikaOS_cortex_mx_ee_internal.inc ****  * this exception to your version of the code, but you are not
  27:Generated_Source\PSoC5/ErikaOS_cortex_mx_ee_internal.inc ****  * obligated to do so.  If you do not wish to do so, delete this
  28:Generated_Source\PSoC5/ErikaOS_cortex_mx_ee_internal.inc ****  * exception statement from your version.
  29:Generated_Source\PSoC5/ErikaOS_cortex_mx_ee_internal.inc ****  *
  30:Generated_Source\PSoC5/ErikaOS_cortex_mx_ee_internal.inc ****  * ERIKA Enterprise is distributed in the hope that it will be
  31:Generated_Source\PSoC5/ErikaOS_cortex_mx_ee_internal.inc ****  * useful, but WITHOUT ANY WARRANTY; without even the implied warranty
  32:Generated_Source\PSoC5/ErikaOS_cortex_mx_ee_internal.inc ****  * of MERCHANTABILITY or FITNESS FOR A PARTICULAR PURPOSE.  See the
  33:Generated_Source\PSoC5/ErikaOS_cortex_mx_ee_internal.inc ****  * GNU General Public License version 2 for more details.
  34:Generated_Source\PSoC5/ErikaOS_cortex_mx_ee_internal.inc ****  *
  35:Generated_Source\PSoC5/ErikaOS_cortex_mx_ee_internal.inc ****  * You should have received a copy of the GNU General Public License
  36:Generated_Source\PSoC5/ErikaOS_cortex_mx_ee_internal.inc ****  * version 2 along with ERIKA Enterprise; if not, write to the
  37:Generated_Source\PSoC5/ErikaOS_cortex_mx_ee_internal.inc ****  * Free Software Foundation, Inc., 51 Franklin Street, Fifth Floor,
  38:Generated_Source\PSoC5/ErikaOS_cortex_mx_ee_internal.inc ****  * Boston, MA 02110-1301 USA.
  39:Generated_Source\PSoC5/ErikaOS_cortex_mx_ee_internal.inc ****  * ###*E*### */
  40:Generated_Source\PSoC5/ErikaOS_cortex_mx_ee_internal.inc **** 
ARM GAS  C:\Users\agila\AppData\Local\Temp\cccLUxJg.s 			page 18


  41:Generated_Source\PSoC5/ErikaOS_cortex_mx_ee_internal.inc **** /** 
  42:Generated_Source\PSoC5/ErikaOS_cortex_mx_ee_internal.inc **** 	@file	ee_internal.h
  43:Generated_Source\PSoC5/ErikaOS_cortex_mx_ee_internal.inc **** 	@brief	Derived from cpu/pic30/inc/ee_internal.h
  44:Generated_Source\PSoC5/ErikaOS_cortex_mx_ee_internal.inc **** 	@author	Gianluca Franchino
  45:Generated_Source\PSoC5/ErikaOS_cortex_mx_ee_internal.inc **** 	@author	Giuseppe Serano
  46:Generated_Source\PSoC5/ErikaOS_cortex_mx_ee_internal.inc **** 	@date	2012
  47:Generated_Source\PSoC5/ErikaOS_cortex_mx_ee_internal.inc **** */  
  48:Generated_Source\PSoC5/ErikaOS_cortex_mx_ee_internal.inc ****     
  49:Generated_Source\PSoC5/ErikaOS_cortex_mx_ee_internal.inc **** /*
  50:Generated_Source\PSoC5/ErikaOS_cortex_mx_ee_internal.inc ****  * PSoC Port and API Generation
  51:Generated_Source\PSoC5/ErikaOS_cortex_mx_ee_internal.inc ****  * Carlos Fernando Meier Martinez
  52:Generated_Source\PSoC5/ErikaOS_cortex_mx_ee_internal.inc ****  * Hochschule Darmstadt, Germany. 2017.
  53:Generated_Source\PSoC5/ErikaOS_cortex_mx_ee_internal.inc ****  */
  54:Generated_Source\PSoC5/ErikaOS_cortex_mx_ee_internal.inc **** 
  55:Generated_Source\PSoC5/ErikaOS_cortex_mx_ee_internal.inc **** #ifndef __INCLUDE_CORTEX_MX_INTERNAL_H__
  56:Generated_Source\PSoC5/ErikaOS_cortex_mx_ee_internal.inc **** #define __INCLUDE_CORTEX_MX_INTERNAL_H__
  57:Generated_Source\PSoC5/ErikaOS_cortex_mx_ee_internal.inc **** 
  58:Generated_Source\PSoC5/ErikaOS_cortex_mx_ee_internal.inc **** 
  59:Generated_Source\PSoC5/ErikaOS_cortex_mx_ee_internal.inc **** #include "ErikaOS_cortex_mx_ee_cpu.inc"
  60:Generated_Source\PSoC5/ErikaOS_cortex_mx_ee_internal.inc **** 
  61:Generated_Source\PSoC5/ErikaOS_cortex_mx_ee_internal.inc **** 
  62:Generated_Source\PSoC5/ErikaOS_cortex_mx_ee_internal.inc **** /*************************************************************************
  63:Generated_Source\PSoC5/ErikaOS_cortex_mx_ee_internal.inc ****  Functions
  64:Generated_Source\PSoC5/ErikaOS_cortex_mx_ee_internal.inc ****  *************************************************************************/
  65:Generated_Source\PSoC5/ErikaOS_cortex_mx_ee_internal.inc **** 
  66:Generated_Source\PSoC5/ErikaOS_cortex_mx_ee_internal.inc **** /*
  67:Generated_Source\PSoC5/ErikaOS_cortex_mx_ee_internal.inc ****  * Generic Primitives
  68:Generated_Source\PSoC5/ErikaOS_cortex_mx_ee_internal.inc ****  */
  69:Generated_Source\PSoC5/ErikaOS_cortex_mx_ee_internal.inc **** 
  70:Generated_Source\PSoC5/ErikaOS_cortex_mx_ee_internal.inc **** #include "ErikaOS_common_ee_primitives.inc"
  71:Generated_Source\PSoC5/ErikaOS_cortex_mx_ee_internal.inc **** 
  72:Generated_Source\PSoC5/ErikaOS_cortex_mx_ee_internal.inc **** /*************************************************************************
  73:Generated_Source\PSoC5/ErikaOS_cortex_mx_ee_internal.inc ****                             System startup
  74:Generated_Source\PSoC5/ErikaOS_cortex_mx_ee_internal.inc ****  *************************************************************************/
  75:Generated_Source\PSoC5/ErikaOS_cortex_mx_ee_internal.inc **** 
  76:Generated_Source\PSoC5/ErikaOS_cortex_mx_ee_internal.inc **** #define OO_CPU_HAS_STARTOS_ROUTINE
  77:Generated_Source\PSoC5/ErikaOS_cortex_mx_ee_internal.inc **** 
  78:Generated_Source\PSoC5/ErikaOS_cortex_mx_ee_internal.inc **** /* If system is defined I have to initialize it*/
  79:Generated_Source\PSoC5/ErikaOS_cortex_mx_ee_internal.inc **** #if	( defined(ENABLE_SYSTEM_TIMER) && defined(EE_SYSTEM_TIMER_DEVICE) )
  80:Generated_Source\PSoC5/ErikaOS_cortex_mx_ee_internal.inc **** void EE_cortex_mx_initialize_system_timer(void);
  81:Generated_Source\PSoC5/ErikaOS_cortex_mx_ee_internal.inc **** #else /* ENABLE_SYSTEM_TIMER */
  82:Generated_Source\PSoC5/ErikaOS_cortex_mx_ee_internal.inc **** #define EE_cortex_mx_initialize_system_timer() ((void) 0)
  83:Generated_Source\PSoC5/ErikaOS_cortex_mx_ee_internal.inc **** #endif /* ENABLE_SYSTEM_TIMER */
  84:Generated_Source\PSoC5/ErikaOS_cortex_mx_ee_internal.inc **** 
  85:Generated_Source\PSoC5/ErikaOS_cortex_mx_ee_internal.inc **** __INLINE__ EE_TYPEBOOL  EE_cpu_startos(void);
  86:Generated_Source\PSoC5/ErikaOS_cortex_mx_ee_internal.inc **** __INLINE__ EE_TYPEBOOL  EE_cpu_startos(void)
  87:Generated_Source\PSoC5/ErikaOS_cortex_mx_ee_internal.inc **** {
  88:Generated_Source\PSoC5/ErikaOS_cortex_mx_ee_internal.inc ****   EE_system_init();
  89:Generated_Source\PSoC5/ErikaOS_cortex_mx_ee_internal.inc ****   EE_cortex_mx_initialize_system_timer();
  90:Generated_Source\PSoC5/ErikaOS_cortex_mx_ee_internal.inc ****   return 0;
  91:Generated_Source\PSoC5/ErikaOS_cortex_mx_ee_internal.inc **** }
  92:Generated_Source\PSoC5/ErikaOS_cortex_mx_ee_internal.inc **** 
  93:Generated_Source\PSoC5/ErikaOS_cortex_mx_ee_internal.inc **** 
  94:Generated_Source\PSoC5/ErikaOS_cortex_mx_ee_internal.inc **** /** Called as _first_ function of a primitive that can be called in
  95:Generated_Source\PSoC5/ErikaOS_cortex_mx_ee_internal.inc ****    an IRQ and in a task */
  96:Generated_Source\PSoC5/ErikaOS_cortex_mx_ee_internal.inc **** __INLINE__ EE_FREG  EE_hal_begin_nested_primitive(void)
  97:Generated_Source\PSoC5/ErikaOS_cortex_mx_ee_internal.inc **** {
ARM GAS  C:\Users\agila\AppData\Local\Temp\cccLUxJg.s 			page 19


  98:Generated_Source\PSoC5/ErikaOS_cortex_mx_ee_internal.inc ****     return EE_cortex_mx_suspendIRQ();
  99:Generated_Source\PSoC5/ErikaOS_cortex_mx_ee_internal.inc **** }
 100:Generated_Source\PSoC5/ErikaOS_cortex_mx_ee_internal.inc **** 
 101:Generated_Source\PSoC5/ErikaOS_cortex_mx_ee_internal.inc **** 
 102:Generated_Source\PSoC5/ErikaOS_cortex_mx_ee_internal.inc **** /** Called as _last_ function of a primitive that can be called in
 103:Generated_Source\PSoC5/ErikaOS_cortex_mx_ee_internal.inc ****    an IRQ and in a task.  Enable IRQs if they were enabled before entering. */
 104:Generated_Source\PSoC5/ErikaOS_cortex_mx_ee_internal.inc **** __INLINE__ void  EE_hal_end_nested_primitive(EE_FREG f)
 105:Generated_Source\PSoC5/ErikaOS_cortex_mx_ee_internal.inc **** {
 106:Generated_Source\PSoC5/ErikaOS_cortex_mx_ee_internal.inc ****     EE_cortex_mx_resumeIRQ(f);
 107:Generated_Source\PSoC5/ErikaOS_cortex_mx_ee_internal.inc **** }
 108:Generated_Source\PSoC5/ErikaOS_cortex_mx_ee_internal.inc **** 
 109:Generated_Source\PSoC5/ErikaOS_cortex_mx_ee_internal.inc **** /* Used to get internal CPU priority. */
 110:Generated_Source\PSoC5/ErikaOS_cortex_mx_ee_internal.inc **** __INLINE__ EE_TYPEISR2PRIO  EE_hal_get_int_prio(void)
 111:Generated_Source\PSoC5/ErikaOS_cortex_mx_ee_internal.inc **** {
 112:Generated_Source\PSoC5/ErikaOS_cortex_mx_ee_internal.inc ****   return EE_cortex_mx_get_int_prio();
 113:Generated_Source\PSoC5/ErikaOS_cortex_mx_ee_internal.inc **** }
 114:Generated_Source\PSoC5/ErikaOS_cortex_mx_ee_internal.inc **** 
 115:Generated_Source\PSoC5/ErikaOS_cortex_mx_ee_internal.inc **** /* Used to set internal CPU priority. */
 116:Generated_Source\PSoC5/ErikaOS_cortex_mx_ee_internal.inc **** __INLINE__ void  EE_hal_set_int_prio(EE_TYPEISR2PRIO prio)
 117:Generated_Source\PSoC5/ErikaOS_cortex_mx_ee_internal.inc **** {
 118:Generated_Source\PSoC5/ErikaOS_cortex_mx_ee_internal.inc ****   EE_cortex_mx_set_int_prio(prio);
 119:Generated_Source\PSoC5/ErikaOS_cortex_mx_ee_internal.inc **** }
 120:Generated_Source\PSoC5/ErikaOS_cortex_mx_ee_internal.inc **** 
 121:Generated_Source\PSoC5/ErikaOS_cortex_mx_ee_internal.inc **** /*
 122:Generated_Source\PSoC5/ErikaOS_cortex_mx_ee_internal.inc ****  * Used to change internal CPU priority and return a status flag mask.
 123:Generated_Source\PSoC5/ErikaOS_cortex_mx_ee_internal.inc ****  *
 124:Generated_Source\PSoC5/ErikaOS_cortex_mx_ee_internal.inc ****  * Note:	EE_FREG param flag and return value needed only for according to
 125:Generated_Source\PSoC5/ErikaOS_cortex_mx_ee_internal.inc ****  * 		HAL interface.
 126:Generated_Source\PSoC5/ErikaOS_cortex_mx_ee_internal.inc ****  */
 127:Generated_Source\PSoC5/ErikaOS_cortex_mx_ee_internal.inc **** __INLINE__ EE_FREG  EE_hal_change_int_prio(
 128:Generated_Source\PSoC5/ErikaOS_cortex_mx_ee_internal.inc ****   EE_TYPEISR2PRIO prio, EE_FREG flag
 129:Generated_Source\PSoC5/ErikaOS_cortex_mx_ee_internal.inc **** )
 130:Generated_Source\PSoC5/ErikaOS_cortex_mx_ee_internal.inc **** {
 131:Generated_Source\PSoC5/ErikaOS_cortex_mx_ee_internal.inc ****   EE_hal_set_int_prio(prio);
 132:Generated_Source\PSoC5/ErikaOS_cortex_mx_ee_internal.inc ****   return flag;
 133:Generated_Source\PSoC5/ErikaOS_cortex_mx_ee_internal.inc **** }
 134:Generated_Source\PSoC5/ErikaOS_cortex_mx_ee_internal.inc **** 
 135:Generated_Source\PSoC5/ErikaOS_cortex_mx_ee_internal.inc **** /*
 136:Generated_Source\PSoC5/ErikaOS_cortex_mx_ee_internal.inc ****  * Used to raise internal CPU interrupt priority if param new_prio is greater
 137:Generated_Source\PSoC5/ErikaOS_cortex_mx_ee_internal.inc ****  * than actual priority.
 138:Generated_Source\PSoC5/ErikaOS_cortex_mx_ee_internal.inc ****  *
 139:Generated_Source\PSoC5/ErikaOS_cortex_mx_ee_internal.inc ****  * Note:	EE_FREG param flag and return value needed only for according to
 140:Generated_Source\PSoC5/ErikaOS_cortex_mx_ee_internal.inc ****  * 		HAL interface.
 141:Generated_Source\PSoC5/ErikaOS_cortex_mx_ee_internal.inc ****  */
 142:Generated_Source\PSoC5/ErikaOS_cortex_mx_ee_internal.inc **** __INLINE__ EE_FREG  EE_hal_raise_int_prio_if_less(
 143:Generated_Source\PSoC5/ErikaOS_cortex_mx_ee_internal.inc ****   EE_TYPEISR2PRIO new_prio, EE_FREG flag
 144:Generated_Source\PSoC5/ErikaOS_cortex_mx_ee_internal.inc **** )
 145:Generated_Source\PSoC5/ErikaOS_cortex_mx_ee_internal.inc **** {
 146:Generated_Source\PSoC5/ErikaOS_cortex_mx_ee_internal.inc ****   register EE_TYPEISR2PRIO prev_prio = EE_cortex_mx_get_int_prio();
 147:Generated_Source\PSoC5/ErikaOS_cortex_mx_ee_internal.inc ****   if(((new_prio != 0U) && (prev_prio > new_prio)) || (prev_prio == 0)) {
 148:Generated_Source\PSoC5/ErikaOS_cortex_mx_ee_internal.inc ****     EE_cortex_mx_set_int_prio(new_prio);
 149:Generated_Source\PSoC5/ErikaOS_cortex_mx_ee_internal.inc ****   }
 150:Generated_Source\PSoC5/ErikaOS_cortex_mx_ee_internal.inc ****   return flag;
 151:Generated_Source\PSoC5/ErikaOS_cortex_mx_ee_internal.inc **** }
 152:Generated_Source\PSoC5/ErikaOS_cortex_mx_ee_internal.inc **** 
 153:Generated_Source\PSoC5/ErikaOS_cortex_mx_ee_internal.inc **** /*
 154:Generated_Source\PSoC5/ErikaOS_cortex_mx_ee_internal.inc ****  * Used to check internal CPU interrupt priority if param new_prio is greater
ARM GAS  C:\Users\agila\AppData\Local\Temp\cccLUxJg.s 			page 20


 155:Generated_Source\PSoC5/ErikaOS_cortex_mx_ee_internal.inc ****  * than actual priority.
 156:Generated_Source\PSoC5/ErikaOS_cortex_mx_ee_internal.inc ****  */
 157:Generated_Source\PSoC5/ErikaOS_cortex_mx_ee_internal.inc **** __INLINE__ EE_BIT  EE_hal_check_int_prio_if_higher(
 158:Generated_Source\PSoC5/ErikaOS_cortex_mx_ee_internal.inc ****   EE_TYPEISR2PRIO new_prio
 159:Generated_Source\PSoC5/ErikaOS_cortex_mx_ee_internal.inc **** )
 160:Generated_Source\PSoC5/ErikaOS_cortex_mx_ee_internal.inc **** {
 161:Generated_Source\PSoC5/ErikaOS_cortex_mx_ee_internal.inc ****   register EE_TYPEISR2PRIO prev_prio = EE_cortex_mx_get_int_prio();
 162:Generated_Source\PSoC5/ErikaOS_cortex_mx_ee_internal.inc ****   return ((prev_prio != 0U) && ((prev_prio < new_prio) || (new_prio == 0U)));
 118              		.loc 5 162 0 discriminator 1
 119 0042 21B1     		cbz	r1, .L14
 120              		.loc 5 162 0 is_stmt 0
 121 0044 A142     		cmp	r1, r4
 122 0046 04D3     		bcc	.L15
 123 0048 2CB1     		cbz	r4, .L16
 124 004a 0021     		movs	r1, #0
 125 004c 04E0     		b	.L5
 126              	.L14:
 127 004e 0021     		movs	r1, #0
 128 0050 02E0     		b	.L5
 129              	.L15:
 130 0052 0121     		movs	r1, #1
 131 0054 00E0     		b	.L5
 132              	.L16:
 133 0056 0121     		movs	r1, #1
 134              	.L5:
 135              	.LVL5:
 136              	.LBE60:
 137              	.LBE59:
 166:Generated_Source\PSoC5/ErikaOS_ee_lockres.c ****     (EE_hal_check_int_prio_if_higher(EE_resource_isr2_priority[ResID]) !=
 138              		.loc 1 166 0 is_stmt 1
 139 0058 11F0FF0F 		tst	r1, #255
 140 005c 34D1     		bne	.L17
 141              	.L4:
 142              	.LBB63:
 143              	.LBB64:
 144              	.LBB65:
 145              		.loc 4 325 0
 146              		.syntax unified
 147              	@ 325 "Generated_Source\PSoC5\ErikaOS_cortex_mx_ee_cpu.inc" 1
 148 005e EFF31181 		MRS r1, BASEPRI
 149              	@ 0 "" 2
 150              		.thumb
 151              		.syntax unified
 152              	.LBE65:
 153              	.LBE64:
 154              	.LBE63:
 168:Generated_Source\PSoC5/ErikaOS_ee_lockres.c ****      0U) )
 169:Generated_Source\PSoC5/ErikaOS_ee_lockres.c ****   {
 170:Generated_Source\PSoC5/ErikaOS_ee_lockres.c ****     ev = E_OS_ACCESS;
 171:Generated_Source\PSoC5/ErikaOS_ee_lockres.c ****   } else
 172:Generated_Source\PSoC5/ErikaOS_ee_lockres.c **** #else /* __OO_ISR2_RESOURCES__ */
 173:Generated_Source\PSoC5/ErikaOS_ee_lockres.c ****   if ( inside_task == EE_FALSE ) {
 174:Generated_Source\PSoC5/ErikaOS_ee_lockres.c ****     ev = E_OS_ACCESS;
 175:Generated_Source\PSoC5/ErikaOS_ee_lockres.c ****   } else
 176:Generated_Source\PSoC5/ErikaOS_ee_lockres.c **** #endif /* __OO_ISR2_RESOURCES__ */
 177:Generated_Source\PSoC5/ErikaOS_ee_lockres.c **** #endif /* __OO_EXTENDED_STATUS__ */
 178:Generated_Source\PSoC5/ErikaOS_ee_lockres.c ****   {
ARM GAS  C:\Users\agila\AppData\Local\Temp\cccLUxJg.s 			page 21


 179:Generated_Source\PSoC5/ErikaOS_ee_lockres.c ****     /* Handle, if needed, resource sharing with ISR2 */
 180:Generated_Source\PSoC5/ErikaOS_ee_lockres.c **** #ifdef __OO_ISR2_RESOURCES__
 181:Generated_Source\PSoC5/ErikaOS_ee_lockres.c ****     /* Save old priority to restore it when release the resource */
 182:Generated_Source\PSoC5/ErikaOS_ee_lockres.c ****     EE_isr2_oldpriority[ResID] = EE_hal_get_int_prio();
 155              		.loc 1 182 0
 156 0062 214C     		ldr	r4, .L19+24
 157 0064 44F82010 		str	r1, [r4, r0, lsl #2]
 183:Generated_Source\PSoC5/ErikaOS_ee_lockres.c ****     /* Raise ISR2 priority if needed */
 184:Generated_Source\PSoC5/ErikaOS_ee_lockres.c ****     flag = EE_hal_raise_int_prio_if_less(EE_resource_isr2_priority[ResID],
 158              		.loc 1 184 0
 159 0068 1E49     		ldr	r1, .L19+20
 160 006a 51F82010 		ldr	r1, [r1, r0, lsl #2]
 161              	.LVL6:
 162              	.LBB66:
 163              	.LBB67:
 164              	.LBB68:
 165              	.LBB69:
 166              		.loc 4 325 0
 167              		.syntax unified
 168              	@ 325 "Generated_Source\PSoC5\ErikaOS_cortex_mx_ee_cpu.inc" 1
 169 006e EFF31184 		MRS r4, BASEPRI
 170              	@ 0 "" 2
 171              		.thumb
 172              		.syntax unified
 173              	.LBE69:
 174              	.LBE68:
 147:Generated_Source\PSoC5/ErikaOS_cortex_mx_ee_internal.inc ****     EE_cortex_mx_set_int_prio(new_prio);
 175              		.loc 5 147 0
 176 0072 09B1     		cbz	r1, .L6
 177 0074 8C42     		cmp	r4, r1
 178 0076 00D8     		bhi	.L7
 179              	.L6:
 180 0078 0CB9     		cbnz	r4, .L8
 181              	.L7:
 182              	.LVL7:
 183              	.LBB70:
 184              	.LBB71:
 326:Generated_Source\PSoC5/ErikaOS_cortex_mx_ee_cpu.inc **** #else
 327:Generated_Source\PSoC5/ErikaOS_cortex_mx_ee_cpu.inc **** 	__ASM volatile("MRS %0, BASEPRI" :: "=r" (prio));
 328:Generated_Source\PSoC5/ErikaOS_cortex_mx_ee_cpu.inc **** #endif	/* !__GNU__ */
 329:Generated_Source\PSoC5/ErikaOS_cortex_mx_ee_cpu.inc **** #endif	/* !__KEIL__ */
 330:Generated_Source\PSoC5/ErikaOS_cortex_mx_ee_cpu.inc **** #endif	/* !__CCS__ */
 331:Generated_Source\PSoC5/ErikaOS_cortex_mx_ee_cpu.inc **** 
 332:Generated_Source\PSoC5/ErikaOS_cortex_mx_ee_cpu.inc **** #ifdef __CCS__
 333:Generated_Source\PSoC5/ErikaOS_cortex_mx_ee_cpu.inc **** 	return 0;
 334:Generated_Source\PSoC5/ErikaOS_cortex_mx_ee_cpu.inc **** #else
 335:Generated_Source\PSoC5/ErikaOS_cortex_mx_ee_cpu.inc **** 	return prio >> NVIC_INT_PRI_S;
 336:Generated_Source\PSoC5/ErikaOS_cortex_mx_ee_cpu.inc **** #endif
 337:Generated_Source\PSoC5/ErikaOS_cortex_mx_ee_cpu.inc **** 
 338:Generated_Source\PSoC5/ErikaOS_cortex_mx_ee_cpu.inc **** #else	/* __CORTEX_M4__ */
 339:Generated_Source\PSoC5/ErikaOS_cortex_mx_ee_cpu.inc **** 	return 0;
 340:Generated_Source\PSoC5/ErikaOS_cortex_mx_ee_cpu.inc **** #endif	/* !__CORTEX_M4__ */
 341:Generated_Source\PSoC5/ErikaOS_cortex_mx_ee_cpu.inc **** }
 342:Generated_Source\PSoC5/ErikaOS_cortex_mx_ee_cpu.inc **** 
 343:Generated_Source\PSoC5/ErikaOS_cortex_mx_ee_cpu.inc **** __INLINE__ void  EE_cortex_mx_set_int_prio(
 344:Generated_Source\PSoC5/ErikaOS_cortex_mx_ee_cpu.inc ****   EE_TYPEISR2PRIO prio
 345:Generated_Source\PSoC5/ErikaOS_cortex_mx_ee_cpu.inc **** )
ARM GAS  C:\Users\agila\AppData\Local\Temp\cccLUxJg.s 			page 22


 346:Generated_Source\PSoC5/ErikaOS_cortex_mx_ee_cpu.inc **** {
 347:Generated_Source\PSoC5/ErikaOS_cortex_mx_ee_cpu.inc **** #ifdef __CORTEX_M4__
 348:Generated_Source\PSoC5/ErikaOS_cortex_mx_ee_cpu.inc **** #ifdef __CCS__
 349:Generated_Source\PSoC5/ErikaOS_cortex_mx_ee_cpu.inc **** 	/* NVIC_INT_PRI_S = 5 */
 350:Generated_Source\PSoC5/ErikaOS_cortex_mx_ee_cpu.inc **** 	__ASM ("    LSL    R0, #5\n"
 351:Generated_Source\PSoC5/ErikaOS_cortex_mx_ee_cpu.inc **** 	       "    MSR    BASEPRI, R0\n");
 352:Generated_Source\PSoC5/ErikaOS_cortex_mx_ee_cpu.inc **** #else	/* __CCS__ */
 353:Generated_Source\PSoC5/ErikaOS_cortex_mx_ee_cpu.inc **** #ifdef __KEIL__
 354:Generated_Source\PSoC5/ErikaOS_cortex_mx_ee_cpu.inc **** 	register EE_FREG BASEPRI __ASM("basepri");
 355:Generated_Source\PSoC5/ErikaOS_cortex_mx_ee_cpu.inc **** 	BASEPRI = (prio << NVIC_INT_PRI_S);
 356:Generated_Source\PSoC5/ErikaOS_cortex_mx_ee_cpu.inc **** #else	/* __KEIL__ */
 357:Generated_Source\PSoC5/ErikaOS_cortex_mx_ee_cpu.inc **** #ifdef __GNU__
 358:Generated_Source\PSoC5/ErikaOS_cortex_mx_ee_cpu.inc **** 	__ASM volatile("MSR BASEPRI, %0" :: "r" (prio << NVIC_INT_PRI_S) : );
 185              		.loc 4 358 0
 186              		.syntax unified
 187              	@ 358 "Generated_Source\PSoC5\ErikaOS_cortex_mx_ee_cpu.inc" 1
 188 007a 81F31188 		MSR BASEPRI, r1
 189              	@ 0 "" 2
 190              	.LVL8:
 191              		.thumb
 192              		.syntax unified
 193              	.L8:
 194 007e 0446     		mov	r4, r0
 195              	.LVL9:
 196              	.LBE71:
 197              	.LBE70:
 198              	.LBE67:
 199              	.LBE66:
 185:Generated_Source\PSoC5/ErikaOS_ee_lockres.c ****       flag);
 186:Generated_Source\PSoC5/ErikaOS_ee_lockres.c **** 
 187:Generated_Source\PSoC5/ErikaOS_ee_lockres.c ****     /* If actually we are inside an ISR2 assign a fake TID to access stack */
 188:Generated_Source\PSoC5/ErikaOS_ee_lockres.c ****     if ( EE_hal_get_IRQ_nesting_level() > 0U ) {
 200              		.loc 1 188 0
 201 0080 13B1     		cbz	r3, .L9
 189:Generated_Source\PSoC5/ErikaOS_ee_lockres.c ****       current = EE_oo_assign_TID_to_ISR2();
 202              		.loc 1 189 0
 203 0082 FFF7FEFF 		bl	EE_oo_assign_TID_to_ISR2
 204              	.LVL10:
 205 0086 0246     		mov	r2, r0
 206              	.LVL11:
 207              	.L9:
 190:Generated_Source\PSoC5/ErikaOS_ee_lockres.c ****     }
 191:Generated_Source\PSoC5/ErikaOS_ee_lockres.c **** #endif /* __OO_ISR2_RESOURCES__ */
 192:Generated_Source\PSoC5/ErikaOS_ee_lockres.c **** 
 193:Generated_Source\PSoC5/ErikaOS_ee_lockres.c **** #if (defined(__OO_EXTENDED_STATUS__)) || (defined(__OO_ISR2_RESOURCES__))
 194:Generated_Source\PSoC5/ErikaOS_ee_lockres.c ****     /* insert the resource into the data structure */
 195:Generated_Source\PSoC5/ErikaOS_ee_lockres.c ****     EE_resource_stack[ResID] = EE_th_resource_last[current];
 208              		.loc 1 195 0
 209 0088 184B     		ldr	r3, .L19+28
 210 008a 53F82200 		ldr	r0, [r3, r2, lsl #2]
 211 008e 1849     		ldr	r1, .L19+32
 212 0090 41F82400 		str	r0, [r1, r4, lsl #2]
 196:Generated_Source\PSoC5/ErikaOS_ee_lockres.c ****     EE_th_resource_last[current] = ResID;
 213              		.loc 1 196 0
 214 0094 43F82240 		str	r4, [r3, r2, lsl #2]
 197:Generated_Source\PSoC5/ErikaOS_ee_lockres.c **** #endif /* __OO_EXTENDED_STATUS__ || __OO_ISR2_RESOURCES__ */
 198:Generated_Source\PSoC5/ErikaOS_ee_lockres.c **** 
ARM GAS  C:\Users\agila\AppData\Local\Temp\cccLUxJg.s 			page 23


 199:Generated_Source\PSoC5/ErikaOS_ee_lockres.c **** #if (defined(__OO_EXTENDED_STATUS__)) || (defined(__OO_ORTI_RES_ISLOCKED__))
 200:Generated_Source\PSoC5/ErikaOS_ee_lockres.c ****     EE_resource_locked[ResID] = EE_TRUE;
 215              		.loc 1 200 0
 216 0098 0122     		movs	r2, #1
 217              	.LVL12:
 218 009a 0F4B     		ldr	r3, .L19+8
 219 009c 43F82420 		str	r2, [r3, r4, lsl #2]
 201:Generated_Source\PSoC5/ErikaOS_ee_lockres.c **** #endif /* __OO_EXTENDED_STATUS__ || __OO_ORTI_RES_ISLOCKED__ */
 202:Generated_Source\PSoC5/ErikaOS_ee_lockres.c **** 
 203:Generated_Source\PSoC5/ErikaOS_ee_lockres.c **** #ifdef __OO_ORTI_RES_LOCKER_TASK__
 204:Generated_Source\PSoC5/ErikaOS_ee_lockres.c ****     EE_ORTI_res_locker[ResID] = (EE_TID)current;
 205:Generated_Source\PSoC5/ErikaOS_ee_lockres.c **** #endif /* __OO_ORTI_RES_LOCKER_TASK__ */
 206:Generated_Source\PSoC5/ErikaOS_ee_lockres.c **** 
 207:Generated_Source\PSoC5/ErikaOS_ee_lockres.c ****     EE_resource_oldceiling[ResID] = EE_sys_ceiling;
 220              		.loc 1 207 0
 221 00a0 144A     		ldr	r2, .L19+36
 222 00a2 1168     		ldr	r1, [r2]
 223 00a4 144B     		ldr	r3, .L19+40
 224 00a6 43F82410 		str	r1, [r3, r4, lsl #2]
 208:Generated_Source\PSoC5/ErikaOS_ee_lockres.c ****     EE_sys_ceiling |= EE_resource_ceiling[ResID];
 225              		.loc 1 208 0
 226 00aa 0D4B     		ldr	r3, .L19+16
 227 00ac 53F82430 		ldr	r3, [r3, r4, lsl #2]
 228 00b0 0B43     		orrs	r3, r3, r1
 229 00b2 1360     		str	r3, [r2]
 230              	.LVL13:
 209:Generated_Source\PSoC5/ErikaOS_ee_lockres.c **** 
 210:Generated_Source\PSoC5/ErikaOS_ee_lockres.c **** #ifdef __OO_ORTI_PRIORITY__
 211:Generated_Source\PSoC5/ErikaOS_ee_lockres.c ****     EE_ORTI_resource_oldpriority[ResID] = EE_ORTI_th_priority[current];
 212:Generated_Source\PSoC5/ErikaOS_ee_lockres.c ****     if ( EE_ORTI_th_priority[current] < EE_resource_ceiling[ResID] ) {
 213:Generated_Source\PSoC5/ErikaOS_ee_lockres.c ****       EE_ORTI_th_priority[current] = EE_resource_ceiling[ResID];
 214:Generated_Source\PSoC5/ErikaOS_ee_lockres.c ****     }
 215:Generated_Source\PSoC5/ErikaOS_ee_lockres.c **** #endif /* __OO_ORTI_PRIORITY__ */
 216:Generated_Source\PSoC5/ErikaOS_ee_lockres.c **** 
 217:Generated_Source\PSoC5/ErikaOS_ee_lockres.c **** #ifdef __MSRP__
 218:Generated_Source\PSoC5/ErikaOS_ee_lockres.c ****     /* if this is a global resource, lock the others CPUs */
 219:Generated_Source\PSoC5/ErikaOS_ee_lockres.c ****     if ( isGlobal ) {
 220:Generated_Source\PSoC5/ErikaOS_ee_lockres.c ****       EE_hal_spin_in((EE_TYPESPIN)ResID);
 221:Generated_Source\PSoC5/ErikaOS_ee_lockres.c ****     }
 222:Generated_Source\PSoC5/ErikaOS_ee_lockres.c **** #endif /* __MSRP__ */
 223:Generated_Source\PSoC5/ErikaOS_ee_lockres.c **** 
 224:Generated_Source\PSoC5/ErikaOS_ee_lockres.c ****     /* Start TP Lock Budget, if needed */
 225:Generated_Source\PSoC5/ErikaOS_ee_lockres.c ****     EE_as_tp_active_activate_budget(EE_RESOURCE_LOCK_BUDGET, ResID, EE_FALSE);
 226:Generated_Source\PSoC5/ErikaOS_ee_lockres.c **** 
 227:Generated_Source\PSoC5/ErikaOS_ee_lockres.c ****     ev = E_OK;
 231              		.loc 1 227 0
 232 00b4 0020     		movs	r0, #0
 233 00b6 08E0     		b	.L2
 234              	.LVL14:
 235              	.L10:
 151:Generated_Source\PSoC5/ErikaOS_ee_lockres.c ****   } else
 236              		.loc 1 151 0
 237 00b8 0320     		movs	r0, #3
 238              	.LVL15:
 239 00ba 06E0     		b	.L2
 240              	.LVL16:
 241              	.L11:
ARM GAS  C:\Users\agila\AppData\Local\Temp\cccLUxJg.s 			page 24


 158:Generated_Source\PSoC5/ErikaOS_ee_lockres.c ****   } else if ( (inside_task != EE_FALSE) && ((current == EE_NIL) ||
 242              		.loc 1 158 0
 243 00bc 0120     		movs	r0, #1
 244              	.LVL17:
 245 00be 04E0     		b	.L2
 246              	.LVL18:
 247              	.L12:
 163:Generated_Source\PSoC5/ErikaOS_ee_lockres.c ****   } else
 248              		.loc 1 163 0
 249 00c0 0120     		movs	r0, #1
 250              	.LVL19:
 251 00c2 02E0     		b	.L2
 252              	.LVL20:
 253              	.L13:
 254 00c4 0120     		movs	r0, #1
 255              	.LVL21:
 256 00c6 00E0     		b	.L2
 257              	.LVL22:
 258              	.L17:
 170:Generated_Source\PSoC5/ErikaOS_ee_lockres.c ****   } else
 259              		.loc 1 170 0
 260 00c8 0120     		movs	r0, #1
 261              	.LVL23:
 262              	.L2:
 263              	.LBB72:
 264              	.LBB73:
 265              	.LBB74:
 232:Generated_Source\PSoC5/ErikaOS_cortex_mx_ee_cpu.inc **** #endif	/* !__KEIL__ */
 266              		.loc 4 232 0
 267              		.syntax unified
 268              	@ 232 "Generated_Source\PSoC5\ErikaOS_cortex_mx_ee_cpu.inc" 1
 269 00ca 85F31088 		msr primask, r5
 270              	@ 0 "" 2
 271              	.LVL24:
 272              		.thumb
 273              		.syntax unified
 274              	.LBE74:
 275              	.LBE73:
 276              	.LBE72:
 228:Generated_Source\PSoC5/ErikaOS_ee_lockres.c ****   }
 229:Generated_Source\PSoC5/ErikaOS_ee_lockres.c **** 
 230:Generated_Source\PSoC5/ErikaOS_ee_lockres.c ****   if ( ev != E_OK ) {
 231:Generated_Source\PSoC5/ErikaOS_ee_lockres.c ****     EE_ORTI_set_lasterror(ev);
 232:Generated_Source\PSoC5/ErikaOS_ee_lockres.c ****     EE_oo_notify_error_GetResource(ResID, ev);
 233:Generated_Source\PSoC5/ErikaOS_ee_lockres.c ****   }
 234:Generated_Source\PSoC5/ErikaOS_ee_lockres.c **** 
 235:Generated_Source\PSoC5/ErikaOS_ee_lockres.c ****   EE_ORTI_set_service_out(EE_SERVICETRACE_GETRESOURCE);
 236:Generated_Source\PSoC5/ErikaOS_ee_lockres.c ****   EE_OS_EXIT_CRITICAL_SECTION();
 237:Generated_Source\PSoC5/ErikaOS_ee_lockres.c **** 
 238:Generated_Source\PSoC5/ErikaOS_ee_lockres.c **** #if (__OO_configUSE_TRACE_FACILITY == 1)
 239:Generated_Source\PSoC5/ErikaOS_ee_lockres.c ****     traceRESOURCE_GET_RESOURCE(ResID, ev)
 240:Generated_Source\PSoC5/ErikaOS_ee_lockres.c **** #endif
 241:Generated_Source\PSoC5/ErikaOS_ee_lockres.c **** 
 242:Generated_Source\PSoC5/ErikaOS_ee_lockres.c ****   return ev;
 243:Generated_Source\PSoC5/ErikaOS_ee_lockres.c **** }
 277              		.loc 1 243 0
 278 00ce 38BD     		pop	{r3, r4, r5, pc}
ARM GAS  C:\Users\agila\AppData\Local\Temp\cccLUxJg.s 			page 25


 279              	.LVL25:
 280              	.L20:
 281              		.align	2
 282              	.L19:
 283 00d0 00000000 		.word	EE_stkfirst
 284 00d4 00000000 		.word	EE_IRQ_nesting_level
 285 00d8 00000000 		.word	EE_resource_locked
 286 00dc 00000000 		.word	EE_th_ready_prio
 287 00e0 00000000 		.word	EE_resource_ceiling
 288 00e4 00000000 		.word	EE_resource_isr2_priority
 289 00e8 00000000 		.word	EE_isr2_oldpriority
 290 00ec 00000000 		.word	EE_th_resource_last
 291 00f0 00000000 		.word	EE_resource_stack
 292 00f4 00000000 		.word	EE_sys_ceiling
 293 00f8 00000000 		.word	EE_resource_oldceiling
 294              		.cfi_endproc
 295              	.LFE71:
 296              		.size	EE_oo_GetResource, .-EE_oo_GetResource
 297              		.text
 298              	.Letext0:
 299              		.file 6 "Generated_Source\\PSoC5\\ErikaOS_common_ee_types.inc"
 300              		.file 7 "Generated_Source\\PSoC5\\ErikaOS_ee_oo_common.inc"
 301              		.file 8 "Generated_Source\\PSoC5\\ErikaOS_cortex_mx_ee_context.inc"
 302              		.file 9 "Generated_Source\\PSoC5\\ErikaOS_ee_oo_intfunc.inc"
 303              		.file 10 "Generated_Source\\PSoC5\\ErikaOS_ee_as_internal.inc"