ARM GAS  C:\Users\agila\AppData\Local\Temp\cc1fcZB2.s 			page 1


   1              		.syntax unified
   2              		.cpu cortex-m3
   3              		.fpu softvfp
   4              		.eabi_attribute 20, 1
   5              		.eabi_attribute 21, 1
   6              		.eabi_attribute 23, 3
   7              		.eabi_attribute 24, 1
   8              		.eabi_attribute 25, 1
   9              		.eabi_attribute 26, 1
  10              		.eabi_attribute 30, 1
  11              		.eabi_attribute 34, 1
  12              		.eabi_attribute 18, 4
  13              		.thumb
  14              		.syntax unified
  15              		.file	"main.c"
  16              		.text
  17              	.Ltext0:
  18              		.cfi_sections	.debug_frame
  19              		.section	.text.main,"ax",%progbits
  20              		.align	2
  21              		.global	main
  22              		.thumb
  23              		.thumb_func
  24              		.type	main, %function
  25              	main:
  26              	.LFB103:
  27              		.file 1 "source\\asw\\main.c"
   1:source\asw/main.c **** /* ========================================
   2:source\asw/main.c ****  *
   3:source\asw/main.c ****  * \file main.c
   4:source\asw/main.c ****  * \author V.S. Agilan
   5:source\asw/main.c ****  * \date 21.01.26
   6:source\asw/main.c ****  *
   7:source\asw/main.c ****  * Copyright YOUR COMPANY, THE YEAR
   8:source\asw/main.c ****  * All Rights Reserved
   9:source\asw/main.c ****  * UNPUBLISHED, LICENSED SOFTWARE.
  10:source\asw/main.c ****  *
  11:source\asw/main.c ****  * CONFIDENTIAL AND PROPRIETARY INFORMATION
  12:source\asw/main.c ****  * WHICH IS THE PROPERTY OF your company.
  13:source\asw/main.c ****  *
  14:source\asw/main.c ****  * NOTE:
  15:source\asw/main.c ****  * 1. No systick timer usage in this project.
  16:source\asw/main.c ****  * 2. Transmit only Decimal values.
  17:source\asw/main.c ****  * 3. Use uart baud rate - 115200.
  18:source\asw/main.c ****  *
  19:source\asw/main.c ****  * ========================================
  20:source\asw/main.c **** */
  21:source\asw/main.c **** #include <stdlib.h>
  22:source\asw/main.c **** #include "project.h"
  23:source\asw/main.c **** #include "global.h"
  24:source\asw/main.c **** #include "comms.h"
  25:source\asw/main.c **** #include "tft.h"
  26:source\asw/main.c **** 
  27:source\asw/main.c **** StreamingRB_t uartRB;          /**< Global streaming UART receive ring buffer instance. */
  28:source\asw/main.c **** DynPayloadRB_t sharedRB;       /**< Global dynamic payload ring buffer shared between multiple task
  29:source\asw/main.c **** 
  30:source\asw/main.c **** int main()
ARM GAS  C:\Users\agila\AppData\Local\Temp\cc1fcZB2.s 			page 2


  31:source\asw/main.c **** {
  28              		.loc 1 31 0
  29              		.cfi_startproc
  30              		@ Volatile: function does not return.
  31              		@ args = 0, pretend = 0, frame = 0
  32              		@ frame_needed = 0, uses_anonymous_args = 0
  33 0000 08B5     		push	{r3, lr}
  34              		.cfi_def_cfa_offset 8
  35              		.cfi_offset 3, -8
  36              		.cfi_offset 14, -4
  32:source\asw/main.c ****     /* Enable global interrupts for the whole system. */
  33:source\asw/main.c ****     CyGlobalIntEnable; 
  37              		.loc 1 33 0
  38              		.syntax unified
  39              	@ 33 "source\asw\main.c" 1
  40 0002 62B6     		CPSIE   i
  41              	@ 0 "" 2
  42              		.thumb
  43              		.syntax unified
  44              	.L2:
  34:source\asw/main.c ****     
  35:source\asw/main.c ****     /* Configure SysTick to generate a 1 ms tick and enable its interrupt. */
  36:source\asw/main.c ****     //EE_systick_set_period(MILLISECONDS_TO_TICKS(1, BCLK__BUS_CLK__HZ));
  37:source\asw/main.c ****     //EE_systick_enable_int();
  38:source\asw/main.c ****     
  39:source\asw/main.c ****     /* Start the OSEK/EE operating system in the default application mode. */
  40:source\asw/main.c ****     for(;;) 
  41:source\asw/main.c ****     {
  42:source\asw/main.c ****         StartOS(OSDEFAULTAPPMODE);
  45              		.loc 1 42 0 discriminator 1
  46 0004 0020     		movs	r0, #0
  47 0006 FFF7FEFF 		bl	EE_oo_StartOS
  48              	.LVL0:
  49 000a FBE7     		b	.L2
  50              		.cfi_endproc
  51              	.LFE103:
  52              		.size	main, .-main
  53              		.section	.text.Functsk_init,"ax",%progbits
  54              		.align	2
  55              		.global	Functsk_init
  56              		.thumb
  57              		.thumb_func
  58              		.type	Functsk_init, %function
  59              	Functsk_init:
  60              	.LFB104:
  43:source\asw/main.c ****     }
  44:source\asw/main.c **** }
  45:source\asw/main.c **** 
  46:source\asw/main.c **** /********************************************************************************
  47:source\asw/main.c ****  * Task Definitions
  48:source\asw/main.c ****  ********************************************************************************/
  49:source\asw/main.c **** 
  50:source\asw/main.c **** /**
  51:source\asw/main.c ****  * System initialization task.
  52:source\asw/main.c ****  * 
  53:source\asw/main.c ****  * Initializes MCAL drivers, display, communication buffers and OS-related
  54:source\asw/main.c ****  * infrastructure, then activates all application tasks before terminating.
ARM GAS  C:\Users\agila\AppData\Local\Temp\cc1fcZB2.s 			page 3


  55:source\asw/main.c ****  */
  56:source\asw/main.c **** TASK(tsk_init)
  57:source\asw/main.c **** {
  61              		.loc 1 57 0
  62              		.cfi_startproc
  63              		@ args = 0, pretend = 0, frame = 0
  64              		@ frame_needed = 0, uses_anonymous_args = 0
  65 0000 08B5     		push	{r3, lr}
  66              		.cfi_def_cfa_offset 8
  67              		.cfi_offset 3, -8
  68              		.cfi_offset 14, -4
  58:source\asw/main.c ****     /* Initialize UART logging interface. */
  59:source\asw/main.c ****     UART_LOG_Start();
  69              		.loc 1 59 0
  70 0002 FFF7FEFF 		bl	UART_LOG_Start
  71              	.LVL1:
  60:source\asw/main.c ****     /* Initialize TFT controller and set backlight to full brightness. */
  61:source\asw/main.c ****     TFT_init();
  72              		.loc 1 61 0
  73 0006 FFF7FEFF 		bl	TFT_init
  74              	.LVL2:
  62:source\asw/main.c ****     TFT_setBacklight(100);
  75              		.loc 1 62 0
  76 000a 6420     		movs	r0, #100
  77 000c FFF7FEFF 		bl	TFT_setBacklight
  78              	.LVL3:
  63:source\asw/main.c ****     
  64:source\asw/main.c ****     /* Configure system ISRs with OS parameters; must follow driver init. */
  65:source\asw/main.c ****     EE_system_init();
  79              		.loc 1 65 0
  80 0010 FFF7FEFF 		bl	EE_system_init
  81              	.LVL4:
  66:source\asw/main.c ****      
  67:source\asw/main.c ****     /* Start SysTick after vector table has been updated by the OS. */
  68:source\asw/main.c ****     //EE_systick_start();  
  69:source\asw/main.c ****     
  70:source\asw/main.c ****     /* Initialize UART streaming RX ring buffer. */
  71:source\asw/main.c ****     streamRB_init(&uartRB);
  82              		.loc 1 71 0
  83 0014 0C48     		ldr	r0, .L6
  84 0016 FFF7FEFF 		bl	streamRB_init
  85              	.LVL5:
  72:source\asw/main.c ****     /* Initialize dynamic payload ring buffer (also acceptable via zero-init). */
  73:source\asw/main.c ****     dynRB_init(&sharedRB);
  86              		.loc 1 73 0
  87 001a 0C48     		ldr	r0, .L6+4
  88 001c FFF7FEFF 		bl	dynRB_init
  89              	.LVL6:
  74:source\asw/main.c ****     
  75:source\asw/main.c ****     /* Print banner announcing the Inter-Task Communication demonstration. */
  76:source\asw/main.c ****     UART_LOG_PutString("\r\n===== Inter Task Communication =====\r\n");
  90              		.loc 1 76 0
  91 0020 0B48     		ldr	r0, .L6+8
  92 0022 FFF7FEFF 		bl	UART_LOG_PutString
  93              	.LVL7:
  77:source\asw/main.c ****     
  78:source\asw/main.c ****     /* Flush all communication buffers to ensure a clean startup state. */
ARM GAS  C:\Users\agila\AppData\Local\Temp\cc1fcZB2.s 			page 4


  79:source\asw/main.c ****     RB_flush_all();
  94              		.loc 1 79 0
  95 0026 FFF7FEFF 		bl	RB_flush_all
  96              	.LVL8:
  80:source\asw/main.c ****     
  81:source\asw/main.c ****     /* Start cyclic alarms if configured (not shown here). */
  82:source\asw/main.c **** 
  83:source\asw/main.c ****     /* Activate all extended tasks and the background task. */
  84:source\asw/main.c ****     ActivateTask(tsk_sender);
  97              		.loc 1 84 0
  98 002a 0220     		movs	r0, #2
  99 002c FFF7FEFF 		bl	EE_oo_ActivateTask
 100              	.LVL9:
  85:source\asw/main.c ****     ActivateTask(tsk_tft);
 101              		.loc 1 85 0
 102 0030 0320     		movs	r0, #3
 103 0032 FFF7FEFF 		bl	EE_oo_ActivateTask
 104              	.LVL10:
  86:source\asw/main.c ****     ActivateTask(tsk_uart);
 105              		.loc 1 86 0
 106 0036 0420     		movs	r0, #4
 107 0038 FFF7FEFF 		bl	EE_oo_ActivateTask
 108              	.LVL11:
  87:source\asw/main.c ****     ActivateTask(tsk_background);
 109              		.loc 1 87 0
 110 003c 0120     		movs	r0, #1
 111 003e FFF7FEFF 		bl	EE_oo_ActivateTask
 112              	.LVL12:
  88:source\asw/main.c **** 
  89:source\asw/main.c ****     /* Terminate this one-shot initialization task. */
  90:source\asw/main.c ****     TerminateTask();
 113              		.loc 1 90 0
 114 0042 FFF7FEFF 		bl	EE_oo_TerminateTask
 115              	.LVL13:
 116 0046 08BD     		pop	{r3, pc}
 117              	.L7:
 118              		.align	2
 119              	.L6:
 120 0048 00000000 		.word	uartRB
 121 004c 00000000 		.word	sharedRB
 122 0050 00000000 		.word	.LC0
 123              		.cfi_endproc
 124              	.LFE104:
 125              		.size	Functsk_init, .-Functsk_init
 126              		.section	.text.Functsk_sender,"ax",%progbits
 127              		.align	2
 128              		.global	Functsk_sender
 129              		.thumb
 130              		.thumb_func
 131              		.type	Functsk_sender, %function
 132              	Functsk_sender:
 133              	.LFB105:
  91:source\asw/main.c **** }
  92:source\asw/main.c **** 
  93:source\asw/main.c **** /**
  94:source\asw/main.c ****  * Sender task.
  95:source\asw/main.c ****  * 
ARM GAS  C:\Users\agila\AppData\Local\Temp\cc1fcZB2.s 			page 5


  96:source\asw/main.c ****  * Waits for complete messages in the streaming buffer, dispatches them to
  97:source\asw/main.c ****  * the dynamic payload buffer for TFT and UART consumers, and performs
  98:source\asw/main.c ****  * buffer housekeeping and error recovery.
  99:source\asw/main.c ****  */
 100:source\asw/main.c **** TASK(tsk_sender)
 101:source\asw/main.c **** {
 134              		.loc 1 101 0
 135              		.cfi_startproc
 136              		@ args = 0, pretend = 0, frame = 136
 137              		@ frame_needed = 0, uses_anonymous_args = 0
 138 0000 30B5     		push	{r4, r5, lr}
 139              		.cfi_def_cfa_offset 12
 140              		.cfi_offset 4, -12
 141              		.cfi_offset 5, -8
 142              		.cfi_offset 14, -4
 143 0002 A5B0     		sub	sp, sp, #148
 144              		.cfi_def_cfa_offset 160
 102:source\asw/main.c ****     EventMaskType ev = 0;
 145              		.loc 1 102 0
 146 0004 0023     		movs	r3, #0
 147 0006 2393     		str	r3, [sp, #140]
 148              	.L10:
 103:source\asw/main.c ****     
 104:source\asw/main.c ****     uint8_t uart_msg[128];   /**< Local buffer for one decoded UART message. */
 105:source\asw/main.c ****     uint16_t msg_len;        /**< Length of the received UART message in bytes. */
 106:source\asw/main.c **** 
 107:source\asw/main.c ****     while (1)
 108:source\asw/main.c ****     {
 109:source\asw/main.c ****         /* Block until the sender event is set by the UART RX ISR. */
 110:source\asw/main.c ****         WaitEvent(ev_sender);
 149              		.loc 1 110 0
 150 0008 0120     		movs	r0, #1
 151 000a FFF7FEFF 		bl	EE_oo_WaitEvent
 152              	.LVL14:
 111:source\asw/main.c ****         GetEvent(tsk_sender, &ev);
 153              		.loc 1 111 0
 154 000e 23A9     		add	r1, sp, #140
 155 0010 0220     		movs	r0, #2
 156 0012 FFF7FEFF 		bl	EE_oo_GetEvent
 157              	.LVL15:
 112:source\asw/main.c ****         ClearEvent(ev);       
 158              		.loc 1 112 0
 159 0016 2398     		ldr	r0, [sp, #140]
 160 0018 FFF7FEFF 		bl	EE_oo_ClearEvent
 161              	.LVL16:
 113:source\asw/main.c **** 
 114:source\asw/main.c ****         if(ev & ev_sender)
 162              		.loc 1 114 0
 163 001c 239B     		ldr	r3, [sp, #140]
 164 001e 13F0010F 		tst	r3, #1
 165 0022 F1D0     		beq	.L10
 166              	.LBB28:
 115:source\asw/main.c ****         {
 116:source\asw/main.c ****             /* Extract one complete message terminating at EOM_MARKER. */
 117:source\asw/main.c ****             RC_t result = streamRB_read_message(&uartRB, uart_msg, &msg_len);
 167              		.loc 1 117 0
 168 0024 0DF10A02 		add	r2, sp, #10
ARM GAS  C:\Users\agila\AppData\Local\Temp\cc1fcZB2.s 			page 6


 169 0028 03A9     		add	r1, sp, #12
 170 002a 1448     		ldr	r0, .L17
 171 002c FFF7FEFF 		bl	streamRB_read_message
 172              	.LVL17:
 118:source\asw/main.c **** 
 119:source\asw/main.c ****             if (result == RC_SUCCESS && msg_len > 0) 
 173              		.loc 1 119 0
 174 0030 10BB     		cbnz	r0, .L11
 175              		.loc 1 119 0 is_stmt 0 discriminator 1
 176 0032 BDF80A20 		ldrh	r2, [sp, #10]
 177 0036 FAB1     		cbz	r2, .L11
 178              	.LBB29:
 120:source\asw/main.c ****             {
 121:source\asw/main.c ****                 /* Forward the same message to UART and TFT consumers. */
 122:source\asw/main.c ****                 RC_t resultUart = dynRB_send(&sharedRB, uart_msg, msg_len, UART_ID, ev_uart, tsk_ua
 179              		.loc 1 122 0 is_stmt 1
 180 0038 114C     		ldr	r4, .L17+4
 181 003a 0423     		movs	r3, #4
 182 003c 0193     		str	r3, [sp, #4]
 183 003e 0093     		str	r3, [sp]
 184 0040 0223     		movs	r3, #2
 185 0042 03A9     		add	r1, sp, #12
 186 0044 2046     		mov	r0, r4
 187              	.LVL18:
 188 0046 FFF7FEFF 		bl	dynRB_send
 189              	.LVL19:
 190 004a 0546     		mov	r5, r0
 191              	.LVL20:
 123:source\asw/main.c ****                 RC_t resultTFT  = dynRB_send(&sharedRB, uart_msg, msg_len, TFT_ID,  ev_tft,  tsk_tf
 192              		.loc 1 123 0
 193 004c BDF80A20 		ldrh	r2, [sp, #10]
 194 0050 0323     		movs	r3, #3
 195 0052 0193     		str	r3, [sp, #4]
 196 0054 0223     		movs	r3, #2
 197 0056 0093     		str	r3, [sp]
 198 0058 0123     		movs	r3, #1
 199 005a 03A9     		add	r1, sp, #12
 200 005c 2046     		mov	r0, r4
 201 005e FFF7FEFF 		bl	dynRB_send
 202              	.LVL21:
 124:source\asw/main.c ****                 
 125:source\asw/main.c ****                 /* If any enqueue fails, reset the dynamic buffer to recover. */
 126:source\asw/main.c ****                 if ((resultTFT != RC_SUCCESS) || (resultUart != RC_SUCCESS)) 
 203              		.loc 1 126 0
 204 0062 00B9     		cbnz	r0, .L12
 205              		.loc 1 126 0 is_stmt 0 discriminator 1
 206 0064 1DB1     		cbz	r5, .L13
 207              	.L12:
 127:source\asw/main.c ****                 {
 128:source\asw/main.c ****                     dynRB_flush(&sharedRB);
 208              		.loc 1 128 0 is_stmt 1
 209 0066 0648     		ldr	r0, .L17+4
 210              	.LVL22:
 211 0068 FFF7FEFF 		bl	dynRB_flush
 212              	.LVL23:
 213 006c 00E0     		b	.L14
 214              	.LVL24:
ARM GAS  C:\Users\agila\AppData\Local\Temp\cc1fcZB2.s 			page 7


 215              	.L13:
 129:source\asw/main.c ****                 } else {
 130:source\asw/main.c ****                     __asm("nop"); 
 216              		.loc 1 130 0
 217              		.syntax unified
 218              	@ 130 "source\asw\main.c" 1
 219 006e 00BF     		nop
 220              	@ 0 "" 2
 221              	.LVL25:
 222              		.thumb
 223              		.syntax unified
 224              	.L14:
 131:source\asw/main.c ****                 }
 132:source\asw/main.c ****                 /* Clear streaming buffer after successful processing of message. */
 133:source\asw/main.c ****                 streamRB_flush(&uartRB);             
 225              		.loc 1 133 0
 226 0070 0248     		ldr	r0, .L17
 227 0072 FFF7FEFF 		bl	streamRB_flush
 228              	.LVL26:
 229              	.LBE29:
 120:source\asw/main.c ****                 /* Forward the same message to UART and TFT consumers. */
 230              		.loc 1 120 0
 231 0076 C7E7     		b	.L10
 232              	.LVL27:
 233              	.L11:
 134:source\asw/main.c ****             } else {
 135:source\asw/main.c ****                 __asm("nop");
 234              		.loc 1 135 0
 235              		.syntax unified
 236              	@ 135 "source\asw\main.c" 1
 237 0078 00BF     		nop
 238              	@ 0 "" 2
 239              		.thumb
 240              		.syntax unified
 241 007a C5E7     		b	.L10
 242              	.L18:
 243              		.align	2
 244              	.L17:
 245 007c 00000000 		.word	uartRB
 246 0080 00000000 		.word	sharedRB
 247              	.LBE28:
 248              		.cfi_endproc
 249              	.LFE105:
 250              		.size	Functsk_sender, .-Functsk_sender
 251              		.section	.text.Functsk_tft,"ax",%progbits
 252              		.align	2
 253              		.global	Functsk_tft
 254              		.thumb
 255              		.thumb_func
 256              		.type	Functsk_tft, %function
 257              	Functsk_tft:
 258              	.LFB106:
 136:source\asw/main.c ****             }
 137:source\asw/main.c ****         }
 138:source\asw/main.c ****     }
 139:source\asw/main.c ****     
 140:source\asw/main.c ****     /* Defensive: task should not reach this point in normal operation. */
ARM GAS  C:\Users\agila\AppData\Local\Temp\cc1fcZB2.s 			page 8


 141:source\asw/main.c ****     TerminateTask();
 142:source\asw/main.c **** }
 143:source\asw/main.c **** 
 144:source\asw/main.c **** /**
 145:source\asw/main.c ****  * TFT consumer task.
 146:source\asw/main.c ****  * 
 147:source\asw/main.c ****  * Waits for messages targeted at the TFT, reads them from the dynamic payload
 148:source\asw/main.c ****  * buffer and prints the numeric values on the display.
 149:source\asw/main.c ****  */
 150:source\asw/main.c **** TASK(tsk_tft) 
 151:source\asw/main.c **** {
 259              		.loc 1 151 0
 260              		.cfi_startproc
 261              		@ args = 0, pretend = 0, frame = 136
 262              		@ frame_needed = 0, uses_anonymous_args = 0
 263 0000 10B5     		push	{r4, lr}
 264              		.cfi_def_cfa_offset 8
 265              		.cfi_offset 4, -8
 266              		.cfi_offset 14, -4
 267 0002 A2B0     		sub	sp, sp, #136
 268              		.cfi_def_cfa_offset 144
 152:source\asw/main.c ****     EventMaskType ev = 0;
 269              		.loc 1 152 0
 270 0004 0023     		movs	r3, #0
 271 0006 2193     		str	r3, [sp, #132]
 272              	.L21:
 153:source\asw/main.c ****     
 154:source\asw/main.c ****     uint8_t tft_data[128];   /**< Local buffer storing message data for TFT. */
 155:source\asw/main.c ****     uint16_t len;            /**< Payload length fetched for TFT. */
 156:source\asw/main.c **** 
 157:source\asw/main.c ****     while (1)
 158:source\asw/main.c ****     {
 159:source\asw/main.c ****         /* Block until TFT event indicates available payload. */
 160:source\asw/main.c ****         WaitEvent(ev_tft);
 273              		.loc 1 160 0
 274 0008 0220     		movs	r0, #2
 275 000a FFF7FEFF 		bl	EE_oo_WaitEvent
 276              	.LVL28:
 161:source\asw/main.c ****         GetEvent(tsk_tft, &ev);
 277              		.loc 1 161 0
 278 000e 21A9     		add	r1, sp, #132
 279 0010 0320     		movs	r0, #3
 280 0012 FFF7FEFF 		bl	EE_oo_GetEvent
 281              	.LVL29:
 162:source\asw/main.c ****         ClearEvent(ev);       
 282              		.loc 1 162 0
 283 0016 2198     		ldr	r0, [sp, #132]
 284 0018 FFF7FEFF 		bl	EE_oo_ClearEvent
 285              	.LVL30:
 163:source\asw/main.c **** 
 164:source\asw/main.c ****         if(ev & ev_tft)
 286              		.loc 1 164 0
 287 001c 219B     		ldr	r3, [sp, #132]
 288 001e 13F0020F 		tst	r3, #2
 289 0022 F1D0     		beq	.L21
 165:source\asw/main.c ****         {            
 166:source\asw/main.c ****             /* Retrieve next TFT-specific payload from shared ring buffer. */
ARM GAS  C:\Users\agila\AppData\Local\Temp\cc1fcZB2.s 			page 9


 167:source\asw/main.c ****             if (dynRB_receive(&sharedRB, TFT_ID, tft_data, &len) == RC_SUCCESS) 
 290              		.loc 1 167 0
 291 0024 0DF10203 		add	r3, sp, #2
 292 0028 01AA     		add	r2, sp, #4
 293 002a 0121     		movs	r1, #1
 294 002c 0F48     		ldr	r0, .L29
 295 002e FFF7FEFF 		bl	dynRB_receive
 296              	.LVL31:
 297 0032 70B1     		cbz	r0, .L26
 298 0034 17E0     		b	.L27
 299              	.LVL32:
 300              	.L24:
 301              	.LBB30:
 168:source\asw/main.c ****             {
 169:source\asw/main.c ****                 /* Print all values except the terminating EOM marker. */
 170:source\asw/main.c ****                 for (uint16_t i = 0; i < (len - 1); i++) // -1 to avoid \0
 171:source\asw/main.c ****                 {
 172:source\asw/main.c ****                     TFT_setCursor(0 + i * 16, 20);  /**< Place cursor for each integer output. */
 302              		.loc 1 172 0 discriminator 3
 303 0036 2001     		lsls	r0, r4, #4
 304 0038 1421     		movs	r1, #20
 305 003a 00B2     		sxth	r0, r0
 306 003c FFF7FEFF 		bl	TFT_setCursor
 307              	.LVL33:
 173:source\asw/main.c ****                     TFT_printInt(tft_data[i]);
 308              		.loc 1 173 0 discriminator 3
 309 0040 22AB     		add	r3, sp, #136
 310 0042 2344     		add	r3, r3, r4
 311 0044 13F8840C 		ldrb	r0, [r3, #-132]	@ zero_extendqisi2
 312 0048 FFF7FEFF 		bl	TFT_printInt
 313              	.LVL34:
 170:source\asw/main.c ****                 {
 314              		.loc 1 170 0 discriminator 3
 315 004c 0134     		adds	r4, r4, #1
 316              	.LVL35:
 317 004e A4B2     		uxth	r4, r4
 318              	.LVL36:
 319 0050 00E0     		b	.L22
 320              	.LVL37:
 321              	.L26:
 322              	.LBE30:
 323 0052 0024     		movs	r4, #0
 324              	.L22:
 325              	.LVL38:
 326              	.LBB31:
 170:source\asw/main.c ****                 {
 327              		.loc 1 170 0 is_stmt 0 discriminator 1
 328 0054 BDF80230 		ldrh	r3, [sp, #2]
 329 0058 013B     		subs	r3, r3, #1
 330 005a 9C42     		cmp	r4, r3
 331 005c EBDB     		blt	.L24
 332              	.LBE31:
 174:source\asw/main.c ****                 }
 175:source\asw/main.c ****                 /* Flush dynamic buffer so that subsequent messages start cleanly. */
 176:source\asw/main.c ****                 dynRB_flush(&sharedRB);    
 333              		.loc 1 176 0 is_stmt 1
 334 005e 0348     		ldr	r0, .L29
ARM GAS  C:\Users\agila\AppData\Local\Temp\cc1fcZB2.s 			page 10


 335 0060 FFF7FEFF 		bl	dynRB_flush
 336              	.LVL39:
 337 0064 D0E7     		b	.L21
 338              	.LVL40:
 339              	.L27:
 177:source\asw/main.c ****             } else {
 178:source\asw/main.c ****                 __asm("nop");
 340              		.loc 1 178 0
 341              		.syntax unified
 342              	@ 178 "source\asw\main.c" 1
 343 0066 00BF     		nop
 344              	@ 0 "" 2
 345              		.thumb
 346              		.syntax unified
 347 0068 CEE7     		b	.L21
 348              	.L30:
 349 006a 00BF     		.align	2
 350              	.L29:
 351 006c 00000000 		.word	sharedRB
 352              		.cfi_endproc
 353              	.LFE106:
 354              		.size	Functsk_tft, .-Functsk_tft
 355              		.section	.text.Functsk_uart,"ax",%progbits
 356              		.align	2
 357              		.global	Functsk_uart
 358              		.thumb
 359              		.thumb_func
 360              		.type	Functsk_uart, %function
 361              	Functsk_uart:
 362              	.LFB107:
 179:source\asw/main.c ****             }
 180:source\asw/main.c ****         }
 181:source\asw/main.c ****     }
 182:source\asw/main.c ****     
 183:source\asw/main.c ****     /* Defensive: task should not reach this point in normal operation. */
 184:source\asw/main.c ****     TerminateTask();
 185:source\asw/main.c **** }
 186:source\asw/main.c **** 
 187:source\asw/main.c **** /**
 188:source\asw/main.c ****  * UART forwarder task.
 189:source\asw/main.c ****  * 
 190:source\asw/main.c ****  * Waits for UART-specific messages in the dynamic payload buffer, then
 191:source\asw/main.c ****  * retransmits the numeric values over UART in a formatted way.
 192:source\asw/main.c ****  */
 193:source\asw/main.c **** TASK(tsk_uart) 
 194:source\asw/main.c **** {
 363              		.loc 1 194 0
 364              		.cfi_startproc
 365              		@ args = 0, pretend = 0, frame = 136
 366              		@ frame_needed = 0, uses_anonymous_args = 0
 367 0000 10B5     		push	{r4, lr}
 368              		.cfi_def_cfa_offset 8
 369              		.cfi_offset 4, -8
 370              		.cfi_offset 14, -4
 371 0002 A2B0     		sub	sp, sp, #136
 372              		.cfi_def_cfa_offset 144
 195:source\asw/main.c ****     EventMaskType ev = 0;
ARM GAS  C:\Users\agila\AppData\Local\Temp\cc1fcZB2.s 			page 11


 373              		.loc 1 195 0
 374 0004 0023     		movs	r3, #0
 375 0006 2193     		str	r3, [sp, #132]
 376              	.L33:
 196:source\asw/main.c ****     
 197:source\asw/main.c ****     uint8_t uart_fwd[128];   /**< Local buffer for data to forward via UART. */
 198:source\asw/main.c ****     uint16_t len;            /**< Length of data to forward over UART. */
 199:source\asw/main.c **** 
 200:source\asw/main.c ****     while (1)
 201:source\asw/main.c ****     {
 202:source\asw/main.c ****         /* Block until UART event signals data availability. */
 203:source\asw/main.c ****         WaitEvent(ev_uart);
 377              		.loc 1 203 0
 378 0008 0420     		movs	r0, #4
 379 000a FFF7FEFF 		bl	EE_oo_WaitEvent
 380              	.LVL41:
 204:source\asw/main.c ****         GetEvent(tsk_uart, &ev);
 381              		.loc 1 204 0
 382 000e 21A9     		add	r1, sp, #132
 383 0010 0420     		movs	r0, #4
 384 0012 FFF7FEFF 		bl	EE_oo_GetEvent
 385              	.LVL42:
 205:source\asw/main.c ****         ClearEvent(ev);       
 386              		.loc 1 205 0
 387 0016 2198     		ldr	r0, [sp, #132]
 388 0018 FFF7FEFF 		bl	EE_oo_ClearEvent
 389              	.LVL43:
 206:source\asw/main.c **** 
 207:source\asw/main.c ****         if(ev & ev_uart)
 390              		.loc 1 207 0
 391 001c 219B     		ldr	r3, [sp, #132]
 392 001e 13F0040F 		tst	r3, #4
 393 0022 F1D0     		beq	.L33
 208:source\asw/main.c ****         {
 209:source\asw/main.c ****             /* Retrieve next UART-specific payload from shared ring buffer. */
 210:source\asw/main.c ****             if (dynRB_receive(&sharedRB, UART_ID, uart_fwd, &len) == RC_SUCCESS) 
 394              		.loc 1 210 0
 395 0024 0DF10203 		add	r3, sp, #2
 396 0028 01AA     		add	r2, sp, #4
 397 002a 0221     		movs	r1, #2
 398 002c 1148     		ldr	r0, .L40
 399 002e FFF7FEFF 		bl	dynRB_receive
 400              	.LVL44:
 401 0032 E8B9     		cbnz	r0, .L34
 211:source\asw/main.c ****             {
 212:source\asw/main.c ****                 /* Forward all data bytes except EOM marker as formatted integers. */
 213:source\asw/main.c ****                 UART_LOG_PutString("\r\nReceived: ");
 402              		.loc 1 213 0
 403 0034 1048     		ldr	r0, .L40+4
 404 0036 FFF7FEFF 		bl	UART_LOG_PutString
 405              	.LVL45:
 406              	.LBB32:
 214:source\asw/main.c ****                 for (uint16_t i = 0; i < (len - 1); i++) // -1 to avoid \0
 407              		.loc 1 214 0
 408 003a 0024     		movs	r4, #0
 409 003c 0FE0     		b	.L35
 410              	.LVL46:
ARM GAS  C:\Users\agila\AppData\Local\Temp\cc1fcZB2.s 			page 12


 411              	.L37:
 215:source\asw/main.c ****                 {
 216:source\asw/main.c ****                     UART_LOG_PutInt(uart_fwd[i]);
 412              		.loc 1 216 0
 413 003e 22AB     		add	r3, sp, #136
 414 0040 2344     		add	r3, r3, r4
 415 0042 13F8840C 		ldrb	r0, [r3, #-132]	@ zero_extendqisi2
 416 0046 FFF7FEFF 		bl	UART_LOG_PutInt
 417              	.LVL47:
 217:source\asw/main.c ****                     
 218:source\asw/main.c ****                     if(i < (len - 2)) {
 418              		.loc 1 218 0
 419 004a BDF80230 		ldrh	r3, [sp, #2]
 420 004e 023B     		subs	r3, r3, #2
 421 0050 9C42     		cmp	r4, r3
 422 0052 02DA     		bge	.L36
 219:source\asw/main.c ****                         UART_LOG_PutString(", ");
 423              		.loc 1 219 0
 424 0054 0948     		ldr	r0, .L40+8
 425 0056 FFF7FEFF 		bl	UART_LOG_PutString
 426              	.LVL48:
 427              	.L36:
 214:source\asw/main.c ****                 {
 428              		.loc 1 214 0 discriminator 2
 429 005a 0134     		adds	r4, r4, #1
 430              	.LVL49:
 431 005c A4B2     		uxth	r4, r4
 432              	.LVL50:
 433              	.L35:
 214:source\asw/main.c ****                 {
 434              		.loc 1 214 0 is_stmt 0 discriminator 1
 435 005e BDF80230 		ldrh	r3, [sp, #2]
 436 0062 013B     		subs	r3, r3, #1
 437 0064 9C42     		cmp	r4, r3
 438 0066 EADB     		blt	.L37
 439              	.LBE32:
 220:source\asw/main.c ****                     }
 221:source\asw/main.c ****                 }
 222:source\asw/main.c ****                 UART_LOG_PutString(".\n\r");
 440              		.loc 1 222 0 is_stmt 1
 441 0068 0548     		ldr	r0, .L40+12
 442 006a FFF7FEFF 		bl	UART_LOG_PutString
 443              	.LVL51:
 444 006e CBE7     		b	.L33
 445              	.LVL52:
 446              	.L34:
 223:source\asw/main.c ****             } else {
 224:source\asw/main.c ****                 __asm("nop");
 447              		.loc 1 224 0
 448              		.syntax unified
 449              	@ 224 "source\asw\main.c" 1
 450 0070 00BF     		nop
 451              	@ 0 "" 2
 452              		.thumb
 453              		.syntax unified
 454 0072 C9E7     		b	.L33
 455              	.L41:
ARM GAS  C:\Users\agila\AppData\Local\Temp\cc1fcZB2.s 			page 13


 456              		.align	2
 457              	.L40:
 458 0074 00000000 		.word	sharedRB
 459 0078 2C000000 		.word	.LC1
 460 007c 3C000000 		.word	.LC2
 461 0080 40000000 		.word	.LC3
 462              		.cfi_endproc
 463              	.LFE107:
 464              		.size	Functsk_uart, .-Functsk_uart
 465              		.section	.text.Functsk_background,"ax",%progbits
 466              		.align	2
 467              		.global	Functsk_background
 468              		.thumb
 469              		.thumb_func
 470              		.type	Functsk_background, %function
 471              	Functsk_background:
 472              	.LFB108:
 225:source\asw/main.c ****             }
 226:source\asw/main.c ****         }
 227:source\asw/main.c ****     }
 228:source\asw/main.c ****     
 229:source\asw/main.c ****     /* Defensive: task should not reach this point in normal operation. */
 230:source\asw/main.c ****     TerminateTask();
 231:source\asw/main.c **** }
 232:source\asw/main.c **** 
 233:source\asw/main.c **** /**
 234:source\asw/main.c ****  * Background task.
 235:source\asw/main.c ****  * 
 236:source\asw/main.c ****  * Lowest-priority task intended for optional background processing or
 237:source\asw/main.c ****  * idle-time activities.
 238:source\asw/main.c ****  */
 239:source\asw/main.c **** TASK(tsk_background)
 240:source\asw/main.c **** {
 473              		.loc 1 240 0
 474              		.cfi_startproc
 475              		@ Volatile: function does not return.
 476              		@ args = 0, pretend = 0, frame = 0
 477              		@ frame_needed = 0, uses_anonymous_args = 0
 478              		@ link register save eliminated.
 479              	.L43:
 241:source\asw/main.c ****     while(1)
 242:source\asw/main.c ****     {
 243:source\asw/main.c ****         /* Placeholder for low-priority or idle processing. */
 244:source\asw/main.c ****         __asm("nop");
 480              		.loc 1 244 0 discriminator 1
 481              		.syntax unified
 482              	@ 244 "source\asw\main.c" 1
 483 0000 00BF     		nop
 484              	@ 0 "" 2
 485              		.thumb
 486              		.syntax unified
 487 0002 FDE7     		b	.L43
 488              		.cfi_endproc
 489              	.LFE108:
 490              		.size	Functsk_background, .-Functsk_background
 491              		.section	.text.ISR2_isr_uartRX,"ax",%progbits
 492              		.align	2
ARM GAS  C:\Users\agila\AppData\Local\Temp\cc1fcZB2.s 			page 14


 493              		.global	ISR2_isr_uartRX
 494              		.thumb
 495              		.thumb_func
 496              		.type	ISR2_isr_uartRX, %function
 497              	ISR2_isr_uartRX:
 498              	.LFB110:
 245:source\asw/main.c ****     }
 246:source\asw/main.c ****     
 247:source\asw/main.c ****     TerminateTask();
 248:source\asw/main.c **** }
 249:source\asw/main.c **** 
 250:source\asw/main.c **** /********************************************************************************
 251:source\asw/main.c ****  * ISR Definitions
 252:source\asw/main.c ****  ********************************************************************************/
 253:source\asw/main.c **** 
 254:source\asw/main.c **** /**
 255:source\asw/main.c ****  * SysTick interrupt service routine.
 256:source\asw/main.c ****  * 
 257:source\asw/main.c ****  * Increments the system counter each millisecond to drive alarms and
 258:source\asw/main.c ****  * OS time-related services.
 259:source\asw/main.c ****  */
 260:source\asw/main.c **** /*ISR(systick_handler)
 261:source\asw/main.c **** {
 262:source\asw/main.c ****     CounterTick(cnt_systick);
 263:source\asw/main.c **** }*/
 264:source\asw/main.c **** 
 265:source\asw/main.c **** /**
 266:source\asw/main.c ****  * UART RX interrupt service routine (category 2).
 267:source\asw/main.c ****  * 
 268:source\asw/main.c ****  * Reads incoming bytes from UART, writes them into the streaming ring buffer
 269:source\asw/main.c ****  * and signals the sender task once an end-of-message marker is received.
 270:source\asw/main.c ****  */
 271:source\asw/main.c **** ISR2(isr_uartRX) {
 499              		.loc 1 271 0
 500              		.cfi_startproc
 501              		@ args = 0, pretend = 0, frame = 8
 502              		@ frame_needed = 0, uses_anonymous_args = 0
 503 0000 00B5     		push	{lr}
 504              		.cfi_def_cfa_offset 4
 505              		.cfi_offset 14, -4
 506 0002 83B0     		sub	sp, sp, #12
 507              		.cfi_def_cfa_offset 16
 272:source\asw/main.c ****     /* Clear pending interrupt flag for the UART RX source. */
 273:source\asw/main.c ****     isr_uartRX_ClearPending();
 508              		.loc 1 273 0
 509 0004 FFF7FEFF 		bl	isr_uartRX_ClearPending
 510              	.LVL53:
 274:source\asw/main.c ****     
 275:source\asw/main.c ****     /* Fetch one received byte from the UART peripheral. */
 276:source\asw/main.c ****     uint8_t rxByte = UART_LOG_GetByte();
 511              		.loc 1 276 0
 512 0008 FFF7FEFF 		bl	UART_LOG_GetByte
 513              	.LVL54:
 514 000c 02A9     		add	r1, sp, #8
 515 000e 01F8010D 		strb	r0, [r1, #-1]!
 277:source\asw/main.c ****     
 278:source\asw/main.c ****     /* Attempt to store the received byte into the streaming buffer. */
ARM GAS  C:\Users\agila\AppData\Local\Temp\cc1fcZB2.s 			page 15


 279:source\asw/main.c ****     RC_t result = streamRB_write(&uartRB, &rxByte);
 516              		.loc 1 279 0
 517 0012 0E48     		ldr	r0, .L49
 518 0014 FFF7FEFF 		bl	streamRB_write
 519              	.LVL55:
 280:source\asw/main.c ****     //UART_LOG_PutString("\r\nC1\n\r");
 281:source\asw/main.c ****     if (result == RC_SUCCESS) 
 520              		.loc 1 281 0
 521 0018 A0B9     		cbnz	r0, .L44
 282:source\asw/main.c ****     {
 283:source\asw/main.c ****         if (rxByte == '\0') 
 522              		.loc 1 283 0
 523 001a 9DF80720 		ldrb	r2, [sp, #7]	@ zero_extendqisi2
 524 001e 4AB9     		cbnz	r2, .L46
 284:source\asw/main.c ****         {
 285:source\asw/main.c ****             /* Clear display for a fresh rendering of the new message. */
 286:source\asw/main.c ****             TFT_clearScreen();
 525              		.loc 1 286 0
 526 0020 FFF7FEFF 		bl	TFT_clearScreen
 527              	.LVL56:
 287:source\asw/main.c ****             TFT_print("Task Comms\n");
 528              		.loc 1 287 0
 529 0024 0A48     		ldr	r0, .L49+4
 530 0026 FFF7FEFF 		bl	TFT_print
 531              	.LVL57:
 288:source\asw/main.c ****             /* Notify sender task that a complete message is available. */
 289:source\asw/main.c ****             SetEvent(tsk_sender, ev_sender);
 532              		.loc 1 289 0
 533 002a 0121     		movs	r1, #1
 534 002c 0220     		movs	r0, #2
 535 002e FFF7FEFF 		bl	EE_oo_SetEvent
 536              	.LVL58:
 537 0032 07E0     		b	.L44
 538              	.LVL59:
 539              	.L46:
 290:source\asw/main.c ****         } else if (result == RC_ERROR_BUFFER_FULL) {
 540              		.loc 1 290 0
 541 0034 10F1080F 		cmn	r0, #8
 542 0038 03D1     		bne	.L47
 291:source\asw/main.c ****             /* If write failed due to overflow, flush the streaming buffer. */
 292:source\asw/main.c ****             streamRB_flush(&uartRB);
 543              		.loc 1 292 0
 544 003a 0448     		ldr	r0, .L49
 545              	.LVL60:
 546 003c FFF7FEFF 		bl	streamRB_flush
 547              	.LVL61:
 548 0040 00E0     		b	.L44
 549              	.LVL62:
 550              	.L47:
 293:source\asw/main.c ****         } else {
 294:source\asw/main.c ****             __asm("nop");
 551              		.loc 1 294 0
 552              		.syntax unified
 553              	@ 294 "source\asw\main.c" 1
 554 0042 00BF     		nop
 555              	@ 0 "" 2
 556              	.LVL63:
ARM GAS  C:\Users\agila\AppData\Local\Temp\cc1fcZB2.s 			page 16


 557              		.thumb
 558              		.syntax unified
 559              	.L44:
 295:source\asw/main.c ****         }
 296:source\asw/main.c ****     }
 297:source\asw/main.c **** }
 560              		.loc 1 297 0
 561 0044 03B0     		add	sp, sp, #12
 562              		.cfi_def_cfa_offset 4
 563              		@ sp needed
 564 0046 5DF804FB 		ldr	pc, [sp], #4
 565              	.L50:
 566 004a 00BF     		.align	2
 567              	.L49:
 568 004c 00000000 		.word	uartRB
 569 0050 44000000 		.word	.LC4
 570              		.cfi_endproc
 571              	.LFE110:
 572              		.size	ISR2_isr_uartRX, .-ISR2_isr_uartRX
 573              		.section	.text.isr_uartRX,"ax",%progbits
 574              		.align	2
 575              		.global	isr_uartRX
 576              		.thumb
 577              		.thumb_func
 578              		.type	isr_uartRX, %function
 579              	isr_uartRX:
 580              	.LFB109:
 271:source\asw/main.c ****     /* Clear pending interrupt flag for the UART RX source. */
 581              		.loc 1 271 0
 582              		.cfi_startproc
 583              		@ Stack Align: May be called with mis-aligned SP.
 584              		@ args = 0, pretend = 0, frame = 0
 585              		@ frame_needed = 0, uses_anonymous_args = 0
 586 0000 6846     		mov	r0, sp
 587              		.cfi_register 13, 0
 588 0002 20F00701 		bic	r1, r0, #7
 589 0006 8D46     		mov	sp, r1
 590 0008 19B5     		push	{r0, r3, r4, lr}
 591              		.cfi_def_cfa_offset 16
 592              		.cfi_offset 13, -16
 593              		.cfi_offset 3, -12
 594              		.cfi_offset 4, -8
 595              		.cfi_offset 14, -4
 596              	.LVL64:
 597              	.LBB33:
 598              	.LBB34:
 599              		.file 2 "Generated_Source\\PSoC5/ErikaOS_cortex_mx_ee_cpu.inc"
   1:Generated_Source\PSoC5/ErikaOS_cortex_mx_ee_cpu.inc **** /* ###*B*###
   2:Generated_Source\PSoC5/ErikaOS_cortex_mx_ee_cpu.inc ****  * ERIKA Enterprise - a tiny RTOS for small microcontrollers
   3:Generated_Source\PSoC5/ErikaOS_cortex_mx_ee_cpu.inc ****  *
   4:Generated_Source\PSoC5/ErikaOS_cortex_mx_ee_cpu.inc ****  * Copyright (C) 2002-2011  Evidence Srl
   5:Generated_Source\PSoC5/ErikaOS_cortex_mx_ee_cpu.inc ****  *
   6:Generated_Source\PSoC5/ErikaOS_cortex_mx_ee_cpu.inc ****  * This file is part of ERIKA Enterprise.
   7:Generated_Source\PSoC5/ErikaOS_cortex_mx_ee_cpu.inc ****  *
   8:Generated_Source\PSoC5/ErikaOS_cortex_mx_ee_cpu.inc ****  * ERIKA Enterprise is free software; you can redistribute it
   9:Generated_Source\PSoC5/ErikaOS_cortex_mx_ee_cpu.inc ****  * and/or modify it under the terms of the GNU General Public License
  10:Generated_Source\PSoC5/ErikaOS_cortex_mx_ee_cpu.inc ****  * version 2 as published by the Free Software Foundation, 
ARM GAS  C:\Users\agila\AppData\Local\Temp\cc1fcZB2.s 			page 17


  11:Generated_Source\PSoC5/ErikaOS_cortex_mx_ee_cpu.inc ****  * (with a special exception described below).
  12:Generated_Source\PSoC5/ErikaOS_cortex_mx_ee_cpu.inc ****  *
  13:Generated_Source\PSoC5/ErikaOS_cortex_mx_ee_cpu.inc ****  * Linking this code statically or dynamically with other modules is
  14:Generated_Source\PSoC5/ErikaOS_cortex_mx_ee_cpu.inc ****  * making a combined work based on this code.  Thus, the terms and
  15:Generated_Source\PSoC5/ErikaOS_cortex_mx_ee_cpu.inc ****  * conditions of the GNU General Public License cover the whole
  16:Generated_Source\PSoC5/ErikaOS_cortex_mx_ee_cpu.inc ****  * combination.
  17:Generated_Source\PSoC5/ErikaOS_cortex_mx_ee_cpu.inc ****  *
  18:Generated_Source\PSoC5/ErikaOS_cortex_mx_ee_cpu.inc ****  * As a special exception, the copyright holders of this library give you
  19:Generated_Source\PSoC5/ErikaOS_cortex_mx_ee_cpu.inc ****  * permission to link this code with independent modules to produce an
  20:Generated_Source\PSoC5/ErikaOS_cortex_mx_ee_cpu.inc ****  * executable, regardless of the license terms of these independent
  21:Generated_Source\PSoC5/ErikaOS_cortex_mx_ee_cpu.inc ****  * modules, and to copy and distribute the resulting executable under
  22:Generated_Source\PSoC5/ErikaOS_cortex_mx_ee_cpu.inc ****  * terms of your choice, provided that you also meet, for each linked
  23:Generated_Source\PSoC5/ErikaOS_cortex_mx_ee_cpu.inc ****  * independent module, the terms and conditions of the license of that
  24:Generated_Source\PSoC5/ErikaOS_cortex_mx_ee_cpu.inc ****  * module.  An independent module is a module which is not derived from
  25:Generated_Source\PSoC5/ErikaOS_cortex_mx_ee_cpu.inc ****  * or based on this library.  If you modify this code, you may extend
  26:Generated_Source\PSoC5/ErikaOS_cortex_mx_ee_cpu.inc ****  * this exception to your version of the code, but you are not
  27:Generated_Source\PSoC5/ErikaOS_cortex_mx_ee_cpu.inc ****  * obligated to do so.  If you do not wish to do so, delete this
  28:Generated_Source\PSoC5/ErikaOS_cortex_mx_ee_cpu.inc ****  * exception statement from your version.
  29:Generated_Source\PSoC5/ErikaOS_cortex_mx_ee_cpu.inc ****  *
  30:Generated_Source\PSoC5/ErikaOS_cortex_mx_ee_cpu.inc ****  * ERIKA Enterprise is distributed in the hope that it will be
  31:Generated_Source\PSoC5/ErikaOS_cortex_mx_ee_cpu.inc ****  * useful, but WITHOUT ANY WARRANTY; without even the implied warranty
  32:Generated_Source\PSoC5/ErikaOS_cortex_mx_ee_cpu.inc ****  * of MERCHANTABILITY or FITNESS FOR A PARTICULAR PURPOSE.  See the
  33:Generated_Source\PSoC5/ErikaOS_cortex_mx_ee_cpu.inc ****  * GNU General Public License version 2 for more details.
  34:Generated_Source\PSoC5/ErikaOS_cortex_mx_ee_cpu.inc ****  *
  35:Generated_Source\PSoC5/ErikaOS_cortex_mx_ee_cpu.inc ****  * You should have received a copy of the GNU General Public License
  36:Generated_Source\PSoC5/ErikaOS_cortex_mx_ee_cpu.inc ****  * version 2 along with ERIKA Enterprise; if not, write to the
  37:Generated_Source\PSoC5/ErikaOS_cortex_mx_ee_cpu.inc ****  * Free Software Foundation, Inc., 51 Franklin Street, Fifth Floor,
  38:Generated_Source\PSoC5/ErikaOS_cortex_mx_ee_cpu.inc ****  * Boston, MA 02110-1301 USA.
  39:Generated_Source\PSoC5/ErikaOS_cortex_mx_ee_cpu.inc ****  * ###*E*### */
  40:Generated_Source\PSoC5/ErikaOS_cortex_mx_ee_cpu.inc **** 
  41:Generated_Source\PSoC5/ErikaOS_cortex_mx_ee_cpu.inc **** /** 
  42:Generated_Source\PSoC5/ErikaOS_cortex_mx_ee_cpu.inc **** 	@file ee_cpu.h
  43:Generated_Source\PSoC5/ErikaOS_cortex_mx_ee_cpu.inc **** 	@brief CPU-dependent part of HAL. Derived from pkg/cpu/pic30/inc/ee_cpu.h
  44:Generated_Source\PSoC5/ErikaOS_cortex_mx_ee_cpu.inc **** 	@author Gianluca Franchino
  45:Generated_Source\PSoC5/ErikaOS_cortex_mx_ee_cpu.inc **** 	@author Giuseppe Serano
  46:Generated_Source\PSoC5/ErikaOS_cortex_mx_ee_cpu.inc **** 	@date 2011
  47:Generated_Source\PSoC5/ErikaOS_cortex_mx_ee_cpu.inc **** */ 
  48:Generated_Source\PSoC5/ErikaOS_cortex_mx_ee_cpu.inc ****     
  49:Generated_Source\PSoC5/ErikaOS_cortex_mx_ee_cpu.inc **** /*
  50:Generated_Source\PSoC5/ErikaOS_cortex_mx_ee_cpu.inc ****  * PSoC Port and API Generation
  51:Generated_Source\PSoC5/ErikaOS_cortex_mx_ee_cpu.inc ****  * Carlos Fernando Meier Martinez
  52:Generated_Source\PSoC5/ErikaOS_cortex_mx_ee_cpu.inc ****  * Hochschule Darmstadt, Germany. 2017.
  53:Generated_Source\PSoC5/ErikaOS_cortex_mx_ee_cpu.inc ****  */
  54:Generated_Source\PSoC5/ErikaOS_cortex_mx_ee_cpu.inc **** 
  55:Generated_Source\PSoC5/ErikaOS_cortex_mx_ee_cpu.inc **** #ifndef __INCLUDE_CORTEX_MX_EE_CPU_H__
  56:Generated_Source\PSoC5/ErikaOS_cortex_mx_ee_cpu.inc **** #define __INCLUDE_CORTEX_MX_EE_CPU_H__
  57:Generated_Source\PSoC5/ErikaOS_cortex_mx_ee_cpu.inc **** 
  58:Generated_Source\PSoC5/ErikaOS_cortex_mx_ee_cpu.inc **** #include "ErikaOS_eecfg.inc"
  59:Generated_Source\PSoC5/ErikaOS_cortex_mx_ee_cpu.inc **** 
  60:Generated_Source\PSoC5/ErikaOS_cortex_mx_ee_cpu.inc **** 
  61:Generated_Source\PSoC5/ErikaOS_cortex_mx_ee_cpu.inc **** #ifdef __GNU__
  62:Generated_Source\PSoC5/ErikaOS_cortex_mx_ee_cpu.inc **** #include "ErikaOS_common_ee_compiler_gcc.inc"
  63:Generated_Source\PSoC5/ErikaOS_cortex_mx_ee_cpu.inc **** #endif
  64:Generated_Source\PSoC5/ErikaOS_cortex_mx_ee_cpu.inc **** 
  65:Generated_Source\PSoC5/ErikaOS_cortex_mx_ee_cpu.inc **** /* Initial stack offset (in words): Used in multistack. */
  66:Generated_Source\PSoC5/ErikaOS_cortex_mx_ee_cpu.inc **** #ifndef CORTEX_MX_INIT_TOS_OFFSET
  67:Generated_Source\PSoC5/ErikaOS_cortex_mx_ee_cpu.inc **** #define CORTEX_MX_INIT_TOS_OFFSET 10
ARM GAS  C:\Users\agila\AppData\Local\Temp\cc1fcZB2.s 			page 18


  68:Generated_Source\PSoC5/ErikaOS_cortex_mx_ee_cpu.inc **** #endif
  69:Generated_Source\PSoC5/ErikaOS_cortex_mx_ee_cpu.inc **** 
  70:Generated_Source\PSoC5/ErikaOS_cortex_mx_ee_cpu.inc **** /*************************************************************************
  71:Generated_Source\PSoC5/ErikaOS_cortex_mx_ee_cpu.inc ****  HAL Types and structures
  72:Generated_Source\PSoC5/ErikaOS_cortex_mx_ee_cpu.inc ****  *************************************************************************/
  73:Generated_Source\PSoC5/ErikaOS_cortex_mx_ee_cpu.inc **** 
  74:Generated_Source\PSoC5/ErikaOS_cortex_mx_ee_cpu.inc **** /* Primitive data types */
  75:Generated_Source\PSoC5/ErikaOS_cortex_mx_ee_cpu.inc **** #include "ErikaOS_common_ee_types.inc"
  76:Generated_Source\PSoC5/ErikaOS_cortex_mx_ee_cpu.inc **** 
  77:Generated_Source\PSoC5/ErikaOS_cortex_mx_ee_cpu.inc **** typedef EE_UINT32 EE_UREG;
  78:Generated_Source\PSoC5/ErikaOS_cortex_mx_ee_cpu.inc **** typedef EE_INT32  EE_SREG;
  79:Generated_Source\PSoC5/ErikaOS_cortex_mx_ee_cpu.inc **** typedef EE_UINT32 EE_FREG;
  80:Generated_Source\PSoC5/ErikaOS_cortex_mx_ee_cpu.inc **** #define EE_UREG_SIZE 4
  81:Generated_Source\PSoC5/ErikaOS_cortex_mx_ee_cpu.inc **** 
  82:Generated_Source\PSoC5/ErikaOS_cortex_mx_ee_cpu.inc **** /* boolean type */
  83:Generated_Source\PSoC5/ErikaOS_cortex_mx_ee_cpu.inc **** #ifndef EE_TYPEBOOL
  84:Generated_Source\PSoC5/ErikaOS_cortex_mx_ee_cpu.inc **** typedef EE_UREG EE_TYPEBOOL;
  85:Generated_Source\PSoC5/ErikaOS_cortex_mx_ee_cpu.inc **** #endif
  86:Generated_Source\PSoC5/ErikaOS_cortex_mx_ee_cpu.inc **** 
  87:Generated_Source\PSoC5/ErikaOS_cortex_mx_ee_cpu.inc **** /* boolean true define */
  88:Generated_Source\PSoC5/ErikaOS_cortex_mx_ee_cpu.inc **** #ifndef EE_TRUE
  89:Generated_Source\PSoC5/ErikaOS_cortex_mx_ee_cpu.inc **** #define EE_TRUE ((EE_TYPEBOOL)1U)
  90:Generated_Source\PSoC5/ErikaOS_cortex_mx_ee_cpu.inc **** #endif
  91:Generated_Source\PSoC5/ErikaOS_cortex_mx_ee_cpu.inc **** 
  92:Generated_Source\PSoC5/ErikaOS_cortex_mx_ee_cpu.inc **** /* boolean false define */
  93:Generated_Source\PSoC5/ErikaOS_cortex_mx_ee_cpu.inc **** #ifndef EE_FALSE
  94:Generated_Source\PSoC5/ErikaOS_cortex_mx_ee_cpu.inc **** #define EE_FALSE ((EE_TYPEBOOL)0U)
  95:Generated_Source\PSoC5/ErikaOS_cortex_mx_ee_cpu.inc **** #endif
  96:Generated_Source\PSoC5/ErikaOS_cortex_mx_ee_cpu.inc **** 
  97:Generated_Source\PSoC5/ErikaOS_cortex_mx_ee_cpu.inc **** #define	EE_HWREG_PTR		volatile EE_UREG *
  98:Generated_Source\PSoC5/ErikaOS_cortex_mx_ee_cpu.inc **** #define	EE_HWREG_ADDR(x)	((EE_HWREG_PTR)(x))
  99:Generated_Source\PSoC5/ErikaOS_cortex_mx_ee_cpu.inc **** #define	EE_HWREG(x)		(*EE_HWREG_ADDR(x))
 100:Generated_Source\PSoC5/ErikaOS_cortex_mx_ee_cpu.inc **** 
 101:Generated_Source\PSoC5/ErikaOS_cortex_mx_ee_cpu.inc **** #ifdef __GNU__
 102:Generated_Source\PSoC5/ErikaOS_cortex_mx_ee_cpu.inc **** 
 103:Generated_Source\PSoC5/ErikaOS_cortex_mx_ee_cpu.inc **** /* Get current SP */
 104:Generated_Source\PSoC5/ErikaOS_cortex_mx_ee_cpu.inc **** __INLINE__ EE_UINT32  __current_sp(void)
 105:Generated_Source\PSoC5/ErikaOS_cortex_mx_ee_cpu.inc **** {
 106:Generated_Source\PSoC5/ErikaOS_cortex_mx_ee_cpu.inc **** EE_UINT32 temp;
 107:Generated_Source\PSoC5/ErikaOS_cortex_mx_ee_cpu.inc **** __ASM ("mov %0, sp" : "=r" (temp) : );
 108:Generated_Source\PSoC5/ErikaOS_cortex_mx_ee_cpu.inc **** return temp;
 109:Generated_Source\PSoC5/ErikaOS_cortex_mx_ee_cpu.inc **** }
 110:Generated_Source\PSoC5/ErikaOS_cortex_mx_ee_cpu.inc **** 
 111:Generated_Source\PSoC5/ErikaOS_cortex_mx_ee_cpu.inc **** /* Set a breakpoint */
 112:Generated_Source\PSoC5/ErikaOS_cortex_mx_ee_cpu.inc **** #define __breakpoint(value)	__ASM ("bkpt "#value)
 113:Generated_Source\PSoC5/ErikaOS_cortex_mx_ee_cpu.inc **** 
 114:Generated_Source\PSoC5/ErikaOS_cortex_mx_ee_cpu.inc **** #endif
 115:Generated_Source\PSoC5/ErikaOS_cortex_mx_ee_cpu.inc **** 
 116:Generated_Source\PSoC5/ErikaOS_cortex_mx_ee_cpu.inc **** /* ISR Priority representation type */
 117:Generated_Source\PSoC5/ErikaOS_cortex_mx_ee_cpu.inc **** typedef EE_UREG EE_TYPEISR2PRIO;
 118:Generated_Source\PSoC5/ErikaOS_cortex_mx_ee_cpu.inc **** 
 119:Generated_Source\PSoC5/ErikaOS_cortex_mx_ee_cpu.inc **** /* Thread IDs */
 120:Generated_Source\PSoC5/ErikaOS_cortex_mx_ee_cpu.inc **** typedef EE_INT32 EE_TID;
 121:Generated_Source\PSoC5/ErikaOS_cortex_mx_ee_cpu.inc **** 
 122:Generated_Source\PSoC5/ErikaOS_cortex_mx_ee_cpu.inc **** /* Thread IDs - unsigned version*/
 123:Generated_Source\PSoC5/ErikaOS_cortex_mx_ee_cpu.inc **** typedef EE_UINT32 EE_UTID;
 124:Generated_Source\PSoC5/ErikaOS_cortex_mx_ee_cpu.inc **** 
ARM GAS  C:\Users\agila\AppData\Local\Temp\cc1fcZB2.s 			page 19


 125:Generated_Source\PSoC5/ErikaOS_cortex_mx_ee_cpu.inc **** /* Used by the common layer to decide whether to start a new thread */
 126:Generated_Source\PSoC5/ErikaOS_cortex_mx_ee_cpu.inc **** #define TID_IS_STACKED_MARK 0x80000000
 127:Generated_Source\PSoC5/ErikaOS_cortex_mx_ee_cpu.inc **** 
 128:Generated_Source\PSoC5/ErikaOS_cortex_mx_ee_cpu.inc **** /* EE_TYPEIRQ is currently unused */
 129:Generated_Source\PSoC5/ErikaOS_cortex_mx_ee_cpu.inc **** 
 130:Generated_Source\PSoC5/ErikaOS_cortex_mx_ee_cpu.inc **** /* XXX: define EE_TIME? */
 131:Generated_Source\PSoC5/ErikaOS_cortex_mx_ee_cpu.inc **** 
 132:Generated_Source\PSoC5/ErikaOS_cortex_mx_ee_cpu.inc **** /* Use the "standard" implementation */
 133:Generated_Source\PSoC5/ErikaOS_cortex_mx_ee_cpu.inc **** #include "ErikaOS_common_ee_hal_structs.inc"
 134:Generated_Source\PSoC5/ErikaOS_cortex_mx_ee_cpu.inc **** 
 135:Generated_Source\PSoC5/ErikaOS_cortex_mx_ee_cpu.inc **** /******************************************************************************
 136:Generated_Source\PSoC5/ErikaOS_cortex_mx_ee_cpu.inc ****  Application dependent data types
 137:Generated_Source\PSoC5/ErikaOS_cortex_mx_ee_cpu.inc ****  ******************************************************************************/
 138:Generated_Source\PSoC5/ErikaOS_cortex_mx_ee_cpu.inc **** 
 139:Generated_Source\PSoC5/ErikaOS_cortex_mx_ee_cpu.inc **** #ifdef	__HAS_TYPES_H__
 140:Generated_Source\PSoC5/ErikaOS_cortex_mx_ee_cpu.inc **** #include	"types.h"
 141:Generated_Source\PSoC5/ErikaOS_cortex_mx_ee_cpu.inc **** #endif
 142:Generated_Source\PSoC5/ErikaOS_cortex_mx_ee_cpu.inc **** 
 143:Generated_Source\PSoC5/ErikaOS_cortex_mx_ee_cpu.inc **** /******************************************************************************
 144:Generated_Source\PSoC5/ErikaOS_cortex_mx_ee_cpu.inc ****  CPU Peripherals
 145:Generated_Source\PSoC5/ErikaOS_cortex_mx_ee_cpu.inc ****  ******************************************************************************/
 146:Generated_Source\PSoC5/ErikaOS_cortex_mx_ee_cpu.inc **** 
 147:Generated_Source\PSoC5/ErikaOS_cortex_mx_ee_cpu.inc **** #ifdef __CORTEX_MX__
 148:Generated_Source\PSoC5/ErikaOS_cortex_mx_ee_cpu.inc **** #include "ErikaOS_cortex_mx_ee_nvic.inc"
 149:Generated_Source\PSoC5/ErikaOS_cortex_mx_ee_cpu.inc **** #include "ErikaOS_cortex_mx_ee_systick.inc"
 150:Generated_Source\PSoC5/ErikaOS_cortex_mx_ee_cpu.inc **** #endif
 151:Generated_Source\PSoC5/ErikaOS_cortex_mx_ee_cpu.inc **** 
 152:Generated_Source\PSoC5/ErikaOS_cortex_mx_ee_cpu.inc **** /******************************************************************************
 153:Generated_Source\PSoC5/ErikaOS_cortex_mx_ee_cpu.inc ****  HAL Variables
 154:Generated_Source\PSoC5/ErikaOS_cortex_mx_ee_cpu.inc ****  ******************************************************************************/
 155:Generated_Source\PSoC5/ErikaOS_cortex_mx_ee_cpu.inc **** 
 156:Generated_Source\PSoC5/ErikaOS_cortex_mx_ee_cpu.inc **** #ifdef __MULTI__
 157:Generated_Source\PSoC5/ErikaOS_cortex_mx_ee_cpu.inc **** 
 158:Generated_Source\PSoC5/ErikaOS_cortex_mx_ee_cpu.inc **** /* Top-of-stack of each private stack */
 159:Generated_Source\PSoC5/ErikaOS_cortex_mx_ee_cpu.inc **** extern struct EE_TOS EE_cortex_mx_system_tos[];
 160:Generated_Source\PSoC5/ErikaOS_cortex_mx_ee_cpu.inc **** //#define	EE_std_system_tos EE_cortex_mx_system_tos
 161:Generated_Source\PSoC5/ErikaOS_cortex_mx_ee_cpu.inc **** 
 162:Generated_Source\PSoC5/ErikaOS_cortex_mx_ee_cpu.inc **** /* Index of the current stack */
 163:Generated_Source\PSoC5/ErikaOS_cortex_mx_ee_cpu.inc **** extern EE_UREG EE_cortex_mx_active_tos;
 164:Generated_Source\PSoC5/ErikaOS_cortex_mx_ee_cpu.inc **** #define	EE_hal_active_tos EE_cortex_mx_active_tos
 165:Generated_Source\PSoC5/ErikaOS_cortex_mx_ee_cpu.inc **** 
 166:Generated_Source\PSoC5/ErikaOS_cortex_mx_ee_cpu.inc **** /*extern	EE_UREG EE_pic30_thread_tos[];
 167:Generated_Source\PSoC5/ErikaOS_cortex_mx_ee_cpu.inc **** #define	EE_std_thread_tos EE_pic30_thread_tos */
 168:Generated_Source\PSoC5/ErikaOS_cortex_mx_ee_cpu.inc **** #endif /* __MULTI__ */
 169:Generated_Source\PSoC5/ErikaOS_cortex_mx_ee_cpu.inc **** 
 170:Generated_Source\PSoC5/ErikaOS_cortex_mx_ee_cpu.inc **** /*********************************************************************
 171:Generated_Source\PSoC5/ErikaOS_cortex_mx_ee_cpu.inc ****  Cortex M0 interrupt disabling/enabling
 172:Generated_Source\PSoC5/ErikaOS_cortex_mx_ee_cpu.inc ****  *********************************************************************/
 173:Generated_Source\PSoC5/ErikaOS_cortex_mx_ee_cpu.inc **** 
 174:Generated_Source\PSoC5/ErikaOS_cortex_mx_ee_cpu.inc **** /* Used to check the value returned by EE_cortex_mx_disableIRQ */
 175:Generated_Source\PSoC5/ErikaOS_cortex_mx_ee_cpu.inc **** #define EE_cortex_mx_are_IRQs_enabled(ie) ((ie) ^ 1)
 176:Generated_Source\PSoC5/ErikaOS_cortex_mx_ee_cpu.inc **** 
 177:Generated_Source\PSoC5/ErikaOS_cortex_mx_ee_cpu.inc **** /**
 178:Generated_Source\PSoC5/ErikaOS_cortex_mx_ee_cpu.inc ****  * Enable interrupts
 179:Generated_Source\PSoC5/ErikaOS_cortex_mx_ee_cpu.inc ****  */
 180:Generated_Source\PSoC5/ErikaOS_cortex_mx_ee_cpu.inc **** __INLINE__ void  EE_cortex_mx_enableIRQ(void)
 181:Generated_Source\PSoC5/ErikaOS_cortex_mx_ee_cpu.inc **** {
ARM GAS  C:\Users\agila\AppData\Local\Temp\cc1fcZB2.s 			page 20


 182:Generated_Source\PSoC5/ErikaOS_cortex_mx_ee_cpu.inc **** #ifdef __IAR__
 183:Generated_Source\PSoC5/ErikaOS_cortex_mx_ee_cpu.inc **** 	__ASM ("cpsie i");
 184:Generated_Source\PSoC5/ErikaOS_cortex_mx_ee_cpu.inc **** #else	/* __IAR__ */
 185:Generated_Source\PSoC5/ErikaOS_cortex_mx_ee_cpu.inc **** #ifdef __CCS__
 186:Generated_Source\PSoC5/ErikaOS_cortex_mx_ee_cpu.inc **** 	__ASM ("    cpsie    i\n");
 187:Generated_Source\PSoC5/ErikaOS_cortex_mx_ee_cpu.inc **** #else	/* __CCS__ */
 188:Generated_Source\PSoC5/ErikaOS_cortex_mx_ee_cpu.inc **** #ifdef __KEIL__
 189:Generated_Source\PSoC5/ErikaOS_cortex_mx_ee_cpu.inc **** 	__enable_irq();
 190:Generated_Source\PSoC5/ErikaOS_cortex_mx_ee_cpu.inc **** #else	/* __KEIL__ */
 191:Generated_Source\PSoC5/ErikaOS_cortex_mx_ee_cpu.inc **** 	__ASM volatile("cpsie i");
 192:Generated_Source\PSoC5/ErikaOS_cortex_mx_ee_cpu.inc **** #endif	/* !__KEIL__ */
 193:Generated_Source\PSoC5/ErikaOS_cortex_mx_ee_cpu.inc **** #endif	/* !__CCS__ */
 194:Generated_Source\PSoC5/ErikaOS_cortex_mx_ee_cpu.inc **** #endif	/* !__IAR__ */
 195:Generated_Source\PSoC5/ErikaOS_cortex_mx_ee_cpu.inc **** }
 196:Generated_Source\PSoC5/ErikaOS_cortex_mx_ee_cpu.inc **** 
 197:Generated_Source\PSoC5/ErikaOS_cortex_mx_ee_cpu.inc **** /**
 198:Generated_Source\PSoC5/ErikaOS_cortex_mx_ee_cpu.inc ****  * Disable interrupts
 199:Generated_Source\PSoC5/ErikaOS_cortex_mx_ee_cpu.inc ****  */
 200:Generated_Source\PSoC5/ErikaOS_cortex_mx_ee_cpu.inc **** __INLINE__ void  EE_cortex_mx_disableIRQ(void)
 201:Generated_Source\PSoC5/ErikaOS_cortex_mx_ee_cpu.inc **** {
 202:Generated_Source\PSoC5/ErikaOS_cortex_mx_ee_cpu.inc **** #ifdef __IAR__
 203:Generated_Source\PSoC5/ErikaOS_cortex_mx_ee_cpu.inc **** 	__ASM ("cpsid i");
 204:Generated_Source\PSoC5/ErikaOS_cortex_mx_ee_cpu.inc **** #else	/* __IAR__ */
 205:Generated_Source\PSoC5/ErikaOS_cortex_mx_ee_cpu.inc **** #ifdef __CCS__
 206:Generated_Source\PSoC5/ErikaOS_cortex_mx_ee_cpu.inc **** 	__ASM ("    cpsid    i\n");
 207:Generated_Source\PSoC5/ErikaOS_cortex_mx_ee_cpu.inc **** #else	/* __CCS__ */
 208:Generated_Source\PSoC5/ErikaOS_cortex_mx_ee_cpu.inc **** #ifdef __KEIL__
 209:Generated_Source\PSoC5/ErikaOS_cortex_mx_ee_cpu.inc **** 	__disable_irq();
 210:Generated_Source\PSoC5/ErikaOS_cortex_mx_ee_cpu.inc **** #else	/* __KEIL__ */
 211:Generated_Source\PSoC5/ErikaOS_cortex_mx_ee_cpu.inc **** 	__ASM volatile("cpsid i");
 600              		.loc 2 211 0
 601              		.syntax unified
 602              	@ 211 "Generated_Source\PSoC5/ErikaOS_cortex_mx_ee_cpu.inc" 1
 603 000a 72B6     		cpsid i
 604              	@ 0 "" 2
 605              		.thumb
 606              		.syntax unified
 607              	.LBE34:
 608              	.LBE33:
 609              	.LBB35:
 610              	.LBB36:
 212:Generated_Source\PSoC5/ErikaOS_cortex_mx_ee_cpu.inc **** #endif	/* !__KEIL__ */
 213:Generated_Source\PSoC5/ErikaOS_cortex_mx_ee_cpu.inc **** #endif	/* !__CCS__ */
 214:Generated_Source\PSoC5/ErikaOS_cortex_mx_ee_cpu.inc **** #endif	/* !__IAR__ */
 215:Generated_Source\PSoC5/ErikaOS_cortex_mx_ee_cpu.inc **** }
 216:Generated_Source\PSoC5/ErikaOS_cortex_mx_ee_cpu.inc **** 
 217:Generated_Source\PSoC5/ErikaOS_cortex_mx_ee_cpu.inc **** /**
 218:Generated_Source\PSoC5/ErikaOS_cortex_mx_ee_cpu.inc ****  * Resume interrupts
 219:Generated_Source\PSoC5/ErikaOS_cortex_mx_ee_cpu.inc ****  */
 220:Generated_Source\PSoC5/ErikaOS_cortex_mx_ee_cpu.inc **** __INLINE__ void  EE_cortex_mx_resumeIRQ(EE_FREG f)
 221:Generated_Source\PSoC5/ErikaOS_cortex_mx_ee_cpu.inc **** {
 222:Generated_Source\PSoC5/ErikaOS_cortex_mx_ee_cpu.inc **** #ifdef __IAR__
 223:Generated_Source\PSoC5/ErikaOS_cortex_mx_ee_cpu.inc **** 	__set_PRIMASK(f);
 224:Generated_Source\PSoC5/ErikaOS_cortex_mx_ee_cpu.inc **** #else	/* __IAR__ */
 225:Generated_Source\PSoC5/ErikaOS_cortex_mx_ee_cpu.inc **** #ifdef __CCS__
 226:Generated_Source\PSoC5/ErikaOS_cortex_mx_ee_cpu.inc **** 	__ASM ("    msr    primask, r0\n");
 227:Generated_Source\PSoC5/ErikaOS_cortex_mx_ee_cpu.inc **** #else	/* __CCS__ */
ARM GAS  C:\Users\agila\AppData\Local\Temp\cc1fcZB2.s 			page 21


 228:Generated_Source\PSoC5/ErikaOS_cortex_mx_ee_cpu.inc **** #ifdef __KEIL__
 229:Generated_Source\PSoC5/ErikaOS_cortex_mx_ee_cpu.inc **** 	register EE_FREG PRIMASK __ASM("primask");
 230:Generated_Source\PSoC5/ErikaOS_cortex_mx_ee_cpu.inc **** 	PRIMASK = f;
 231:Generated_Source\PSoC5/ErikaOS_cortex_mx_ee_cpu.inc **** #else	/* __KEIL__ */
 232:Generated_Source\PSoC5/ErikaOS_cortex_mx_ee_cpu.inc **** 	__ASM volatile("msr primask, %0" :: "r" (f));
 233:Generated_Source\PSoC5/ErikaOS_cortex_mx_ee_cpu.inc **** #endif	/* !__KEIL__ */
 234:Generated_Source\PSoC5/ErikaOS_cortex_mx_ee_cpu.inc **** #endif	/* !__CCS__ */
 235:Generated_Source\PSoC5/ErikaOS_cortex_mx_ee_cpu.inc **** #endif	/* !__IAR__ */
 236:Generated_Source\PSoC5/ErikaOS_cortex_mx_ee_cpu.inc **** }
 237:Generated_Source\PSoC5/ErikaOS_cortex_mx_ee_cpu.inc **** 
 238:Generated_Source\PSoC5/ErikaOS_cortex_mx_ee_cpu.inc **** /**
 239:Generated_Source\PSoC5/ErikaOS_cortex_mx_ee_cpu.inc ****  * Suspend interrupts
 240:Generated_Source\PSoC5/ErikaOS_cortex_mx_ee_cpu.inc ****  */
 241:Generated_Source\PSoC5/ErikaOS_cortex_mx_ee_cpu.inc **** __INLINE__ EE_FREG  EE_cortex_mx_suspendIRQ(void)
 242:Generated_Source\PSoC5/ErikaOS_cortex_mx_ee_cpu.inc **** {
 243:Generated_Source\PSoC5/ErikaOS_cortex_mx_ee_cpu.inc **** #ifndef __CCS__
 244:Generated_Source\PSoC5/ErikaOS_cortex_mx_ee_cpu.inc **** 	EE_FREG istat;
 245:Generated_Source\PSoC5/ErikaOS_cortex_mx_ee_cpu.inc **** #endif
 246:Generated_Source\PSoC5/ErikaOS_cortex_mx_ee_cpu.inc **** #ifdef __IAR__
 247:Generated_Source\PSoC5/ErikaOS_cortex_mx_ee_cpu.inc **** 	 istat = __get_PRIMASK();
 248:Generated_Source\PSoC5/ErikaOS_cortex_mx_ee_cpu.inc **** 	__ASM ("cpsid i");
 249:Generated_Source\PSoC5/ErikaOS_cortex_mx_ee_cpu.inc **** #else	/* __IAR__ */
 250:Generated_Source\PSoC5/ErikaOS_cortex_mx_ee_cpu.inc **** #ifdef __CCS__
 251:Generated_Source\PSoC5/ErikaOS_cortex_mx_ee_cpu.inc **** 	__ASM ("    mrs     r0, primask\n"
 252:Generated_Source\PSoC5/ErikaOS_cortex_mx_ee_cpu.inc **** 	       "    cpsid   i\n"
 253:Generated_Source\PSoC5/ErikaOS_cortex_mx_ee_cpu.inc **** 	       "    bx      lr\n");
 254:Generated_Source\PSoC5/ErikaOS_cortex_mx_ee_cpu.inc **** #else	/* __CCS__ */
 255:Generated_Source\PSoC5/ErikaOS_cortex_mx_ee_cpu.inc **** #ifdef __KEIL__
 256:Generated_Source\PSoC5/ErikaOS_cortex_mx_ee_cpu.inc **** 	register EE_FREG PRIMASK __ASM("primask");
 257:Generated_Source\PSoC5/ErikaOS_cortex_mx_ee_cpu.inc **** 	istat = PRIMASK;
 258:Generated_Source\PSoC5/ErikaOS_cortex_mx_ee_cpu.inc **** 	__disable_irq();
 259:Generated_Source\PSoC5/ErikaOS_cortex_mx_ee_cpu.inc **** #else	/* __KEIL__ */
 260:Generated_Source\PSoC5/ErikaOS_cortex_mx_ee_cpu.inc **** 	__ASM volatile ("mrs %0, primask" : "=r" (istat) );
 261:Generated_Source\PSoC5/ErikaOS_cortex_mx_ee_cpu.inc **** 	__ASM volatile ("cpsid i");
 262:Generated_Source\PSoC5/ErikaOS_cortex_mx_ee_cpu.inc **** #endif	/* !__KEIL__ */
 263:Generated_Source\PSoC5/ErikaOS_cortex_mx_ee_cpu.inc **** #endif	/* !__CCS__ */
 264:Generated_Source\PSoC5/ErikaOS_cortex_mx_ee_cpu.inc **** #endif	/* !__IAR__ */
 265:Generated_Source\PSoC5/ErikaOS_cortex_mx_ee_cpu.inc **** #ifdef __CCS__
 266:Generated_Source\PSoC5/ErikaOS_cortex_mx_ee_cpu.inc **** 	return 0;
 267:Generated_Source\PSoC5/ErikaOS_cortex_mx_ee_cpu.inc **** #else
 268:Generated_Source\PSoC5/ErikaOS_cortex_mx_ee_cpu.inc **** 	return istat;
 269:Generated_Source\PSoC5/ErikaOS_cortex_mx_ee_cpu.inc **** #endif
 270:Generated_Source\PSoC5/ErikaOS_cortex_mx_ee_cpu.inc **** }
 271:Generated_Source\PSoC5/ErikaOS_cortex_mx_ee_cpu.inc **** 
 272:Generated_Source\PSoC5/ErikaOS_cortex_mx_ee_cpu.inc **** /**
 273:Generated_Source\PSoC5/ErikaOS_cortex_mx_ee_cpu.inc ****  * Return true (not 0) if IRQs are enabled, 0 (false) if IRQ are disabled.
 274:Generated_Source\PSoC5/ErikaOS_cortex_mx_ee_cpu.inc ****  */
 275:Generated_Source\PSoC5/ErikaOS_cortex_mx_ee_cpu.inc **** __INLINE__ EE_UINT32  EE_cortex_mx_get_IRQ_enabled(void)
 276:Generated_Source\PSoC5/ErikaOS_cortex_mx_ee_cpu.inc **** {
 277:Generated_Source\PSoC5/ErikaOS_cortex_mx_ee_cpu.inc **** #ifndef __CCS__
 278:Generated_Source\PSoC5/ErikaOS_cortex_mx_ee_cpu.inc **** 	EE_UREG ie;
 279:Generated_Source\PSoC5/ErikaOS_cortex_mx_ee_cpu.inc **** #endif
 280:Generated_Source\PSoC5/ErikaOS_cortex_mx_ee_cpu.inc **** #ifdef __IAR__
 281:Generated_Source\PSoC5/ErikaOS_cortex_mx_ee_cpu.inc **** 	ie = __get_PRIMASK();
 282:Generated_Source\PSoC5/ErikaOS_cortex_mx_ee_cpu.inc **** #else	/* __IAR__ */
 283:Generated_Source\PSoC5/ErikaOS_cortex_mx_ee_cpu.inc **** #ifdef __CCS__
 284:Generated_Source\PSoC5/ErikaOS_cortex_mx_ee_cpu.inc **** 	__ASM ("    MRS     r0, PRIMASK\n"
ARM GAS  C:\Users\agila\AppData\Local\Temp\cc1fcZB2.s 			page 22


 285:Generated_Source\PSoC5/ErikaOS_cortex_mx_ee_cpu.inc **** 	       "    EOR     r0, #1\n"
 286:Generated_Source\PSoC5/ErikaOS_cortex_mx_ee_cpu.inc **** 	       "    bx      lr\n");
 287:Generated_Source\PSoC5/ErikaOS_cortex_mx_ee_cpu.inc **** #else	/* __CCS__ */
 288:Generated_Source\PSoC5/ErikaOS_cortex_mx_ee_cpu.inc **** #ifdef __KEIL__
 289:Generated_Source\PSoC5/ErikaOS_cortex_mx_ee_cpu.inc **** 	register EE_FREG PRIMASK __ASM("primask");
 290:Generated_Source\PSoC5/ErikaOS_cortex_mx_ee_cpu.inc **** 	ie = PRIMASK;
 291:Generated_Source\PSoC5/ErikaOS_cortex_mx_ee_cpu.inc **** #else	/* __KEIL__ */
 292:Generated_Source\PSoC5/ErikaOS_cortex_mx_ee_cpu.inc **** 	__ASM volatile ("MRS %0, primask" : "=r" (ie) );
 293:Generated_Source\PSoC5/ErikaOS_cortex_mx_ee_cpu.inc **** #endif	/* !__KEIL__ */
 294:Generated_Source\PSoC5/ErikaOS_cortex_mx_ee_cpu.inc **** #endif	/* !__CCS__ */
 295:Generated_Source\PSoC5/ErikaOS_cortex_mx_ee_cpu.inc **** #endif	/* !__IAR__ */
 296:Generated_Source\PSoC5/ErikaOS_cortex_mx_ee_cpu.inc **** #ifdef __CCS__
 297:Generated_Source\PSoC5/ErikaOS_cortex_mx_ee_cpu.inc **** 	return 0;
 298:Generated_Source\PSoC5/ErikaOS_cortex_mx_ee_cpu.inc **** #else
 299:Generated_Source\PSoC5/ErikaOS_cortex_mx_ee_cpu.inc **** 	return EE_cortex_mx_are_IRQs_enabled(ie);
 300:Generated_Source\PSoC5/ErikaOS_cortex_mx_ee_cpu.inc **** #endif
 301:Generated_Source\PSoC5/ErikaOS_cortex_mx_ee_cpu.inc **** }
 302:Generated_Source\PSoC5/ErikaOS_cortex_mx_ee_cpu.inc **** 
 303:Generated_Source\PSoC5/ErikaOS_cortex_mx_ee_cpu.inc **** __INLINE__ EE_TYPEISR2PRIO  EE_cortex_mx_get_int_prio(void)
 304:Generated_Source\PSoC5/ErikaOS_cortex_mx_ee_cpu.inc **** {
 305:Generated_Source\PSoC5/ErikaOS_cortex_mx_ee_cpu.inc **** #ifdef __CORTEX_M4__
 306:Generated_Source\PSoC5/ErikaOS_cortex_mx_ee_cpu.inc **** 
 307:Generated_Source\PSoC5/ErikaOS_cortex_mx_ee_cpu.inc **** #ifndef __CCS__
 308:Generated_Source\PSoC5/ErikaOS_cortex_mx_ee_cpu.inc **** 	register EE_UREG prio;
 309:Generated_Source\PSoC5/ErikaOS_cortex_mx_ee_cpu.inc **** #ifdef	__KEIL__
 310:Generated_Source\PSoC5/ErikaOS_cortex_mx_ee_cpu.inc **** 	register EE_FREG BASEPRI __ASM("basepri");
 311:Generated_Source\PSoC5/ErikaOS_cortex_mx_ee_cpu.inc **** #endif
 312:Generated_Source\PSoC5/ErikaOS_cortex_mx_ee_cpu.inc **** 
 313:Generated_Source\PSoC5/ErikaOS_cortex_mx_ee_cpu.inc **** #endif
 314:Generated_Source\PSoC5/ErikaOS_cortex_mx_ee_cpu.inc **** 
 315:Generated_Source\PSoC5/ErikaOS_cortex_mx_ee_cpu.inc **** #ifdef __CCS__
 316:Generated_Source\PSoC5/ErikaOS_cortex_mx_ee_cpu.inc **** 	/* NVIC_INT_PRI_S = 5 */
 317:Generated_Source\PSoC5/ErikaOS_cortex_mx_ee_cpu.inc **** 	__ASM ("    MRS     R0, BASEPRI\n"
 318:Generated_Source\PSoC5/ErikaOS_cortex_mx_ee_cpu.inc **** 	       "    ASR     R0, #5\n"
 319:Generated_Source\PSoC5/ErikaOS_cortex_mx_ee_cpu.inc **** 	       "    BLX     LR\n");
 320:Generated_Source\PSoC5/ErikaOS_cortex_mx_ee_cpu.inc **** #else	/* __CCS__ */
 321:Generated_Source\PSoC5/ErikaOS_cortex_mx_ee_cpu.inc **** #ifdef __KEIL__
 322:Generated_Source\PSoC5/ErikaOS_cortex_mx_ee_cpu.inc **** 	prio = BASEPRI;
 323:Generated_Source\PSoC5/ErikaOS_cortex_mx_ee_cpu.inc **** #else	/* __KEIL__ */
 324:Generated_Source\PSoC5/ErikaOS_cortex_mx_ee_cpu.inc **** #ifdef __GNU__
 325:Generated_Source\PSoC5/ErikaOS_cortex_mx_ee_cpu.inc **** 	__ASM volatile("MRS %0, BASEPRI" : "=r" (prio) :: );
 611              		.loc 2 325 0
 612              		.syntax unified
 613              	@ 325 "Generated_Source\PSoC5/ErikaOS_cortex_mx_ee_cpu.inc" 1
 614 000c EFF31184 		MRS r4, BASEPRI
 615              	@ 0 "" 2
 616              	.LVL65:
 617              		.thumb
 618              		.syntax unified
 619              	.LBE36:
 620              	.LBE35:
 621              	.LBB37:
 622              	.LBB38:
 326:Generated_Source\PSoC5/ErikaOS_cortex_mx_ee_cpu.inc **** #else
 327:Generated_Source\PSoC5/ErikaOS_cortex_mx_ee_cpu.inc **** 	__ASM volatile("MRS %0, BASEPRI" :: "=r" (prio));
 328:Generated_Source\PSoC5/ErikaOS_cortex_mx_ee_cpu.inc **** #endif	/* !__GNU__ */
 329:Generated_Source\PSoC5/ErikaOS_cortex_mx_ee_cpu.inc **** #endif	/* !__KEIL__ */
ARM GAS  C:\Users\agila\AppData\Local\Temp\cc1fcZB2.s 			page 23


 330:Generated_Source\PSoC5/ErikaOS_cortex_mx_ee_cpu.inc **** #endif	/* !__CCS__ */
 331:Generated_Source\PSoC5/ErikaOS_cortex_mx_ee_cpu.inc **** 
 332:Generated_Source\PSoC5/ErikaOS_cortex_mx_ee_cpu.inc **** #ifdef __CCS__
 333:Generated_Source\PSoC5/ErikaOS_cortex_mx_ee_cpu.inc **** 	return 0;
 334:Generated_Source\PSoC5/ErikaOS_cortex_mx_ee_cpu.inc **** #else
 335:Generated_Source\PSoC5/ErikaOS_cortex_mx_ee_cpu.inc **** 	return prio >> NVIC_INT_PRI_S;
 336:Generated_Source\PSoC5/ErikaOS_cortex_mx_ee_cpu.inc **** #endif
 337:Generated_Source\PSoC5/ErikaOS_cortex_mx_ee_cpu.inc **** 
 338:Generated_Source\PSoC5/ErikaOS_cortex_mx_ee_cpu.inc **** #else	/* __CORTEX_M4__ */
 339:Generated_Source\PSoC5/ErikaOS_cortex_mx_ee_cpu.inc **** 	return 0;
 340:Generated_Source\PSoC5/ErikaOS_cortex_mx_ee_cpu.inc **** #endif	/* !__CORTEX_M4__ */
 341:Generated_Source\PSoC5/ErikaOS_cortex_mx_ee_cpu.inc **** }
 342:Generated_Source\PSoC5/ErikaOS_cortex_mx_ee_cpu.inc **** 
 343:Generated_Source\PSoC5/ErikaOS_cortex_mx_ee_cpu.inc **** __INLINE__ void  EE_cortex_mx_set_int_prio(
 344:Generated_Source\PSoC5/ErikaOS_cortex_mx_ee_cpu.inc ****   EE_TYPEISR2PRIO prio
 345:Generated_Source\PSoC5/ErikaOS_cortex_mx_ee_cpu.inc **** )
 346:Generated_Source\PSoC5/ErikaOS_cortex_mx_ee_cpu.inc **** {
 347:Generated_Source\PSoC5/ErikaOS_cortex_mx_ee_cpu.inc **** #ifdef __CORTEX_M4__
 348:Generated_Source\PSoC5/ErikaOS_cortex_mx_ee_cpu.inc **** #ifdef __CCS__
 349:Generated_Source\PSoC5/ErikaOS_cortex_mx_ee_cpu.inc **** 	/* NVIC_INT_PRI_S = 5 */
 350:Generated_Source\PSoC5/ErikaOS_cortex_mx_ee_cpu.inc **** 	__ASM ("    LSL    R0, #5\n"
 351:Generated_Source\PSoC5/ErikaOS_cortex_mx_ee_cpu.inc **** 	       "    MSR    BASEPRI, R0\n");
 352:Generated_Source\PSoC5/ErikaOS_cortex_mx_ee_cpu.inc **** #else	/* __CCS__ */
 353:Generated_Source\PSoC5/ErikaOS_cortex_mx_ee_cpu.inc **** #ifdef __KEIL__
 354:Generated_Source\PSoC5/ErikaOS_cortex_mx_ee_cpu.inc **** 	register EE_FREG BASEPRI __ASM("basepri");
 355:Generated_Source\PSoC5/ErikaOS_cortex_mx_ee_cpu.inc **** 	BASEPRI = (prio << NVIC_INT_PRI_S);
 356:Generated_Source\PSoC5/ErikaOS_cortex_mx_ee_cpu.inc **** #else	/* __KEIL__ */
 357:Generated_Source\PSoC5/ErikaOS_cortex_mx_ee_cpu.inc **** #ifdef __GNU__
 358:Generated_Source\PSoC5/ErikaOS_cortex_mx_ee_cpu.inc **** 	__ASM volatile("MSR BASEPRI, %0" :: "r" (prio << NVIC_INT_PRI_S) : );
 359:Generated_Source\PSoC5/ErikaOS_cortex_mx_ee_cpu.inc **** #else
 360:Generated_Source\PSoC5/ErikaOS_cortex_mx_ee_cpu.inc **** 	__ASM volatile("MSR BASEPRI, %0" :: "r" (prio << NVIC_INT_PRI_S));
 361:Generated_Source\PSoC5/ErikaOS_cortex_mx_ee_cpu.inc **** #endif	/* !__GNU__ */
 362:Generated_Source\PSoC5/ErikaOS_cortex_mx_ee_cpu.inc **** #endif	/* !__KEIL__ */
 363:Generated_Source\PSoC5/ErikaOS_cortex_mx_ee_cpu.inc **** #endif	/* !__CCS__ */
 364:Generated_Source\PSoC5/ErikaOS_cortex_mx_ee_cpu.inc **** #endif	/* __CORTEX_M4__ */
 365:Generated_Source\PSoC5/ErikaOS_cortex_mx_ee_cpu.inc **** }
 366:Generated_Source\PSoC5/ErikaOS_cortex_mx_ee_cpu.inc **** 
 367:Generated_Source\PSoC5/ErikaOS_cortex_mx_ee_cpu.inc **** __INLINE__ EE_TYPEISR2PRIO  EE_cortex_mx_get_isr_prio(
 368:Generated_Source\PSoC5/ErikaOS_cortex_mx_ee_cpu.inc ****   void
 369:Generated_Source\PSoC5/ErikaOS_cortex_mx_ee_cpu.inc **** )
 370:Generated_Source\PSoC5/ErikaOS_cortex_mx_ee_cpu.inc **** {
 371:Generated_Source\PSoC5/ErikaOS_cortex_mx_ee_cpu.inc **** #ifdef __CORTEX_M4__
 372:Generated_Source\PSoC5/ErikaOS_cortex_mx_ee_cpu.inc ****   register EE_UREG vectact = NVIC_INT_CTRL_R & NVIC_INT_CTRL_VEC_ACT_M;
 623              		.loc 2 372 0
 624 0010 1B4B     		ldr	r3, .L56
 625 0012 1B68     		ldr	r3, [r3]
 626 0014 DBB2     		uxtb	r3, r3
 627              	.LVL66:
 373:Generated_Source\PSoC5/ErikaOS_cortex_mx_ee_cpu.inc ****   register EE_TYPEISR2PRIO prio = 0;
 374:Generated_Source\PSoC5/ErikaOS_cortex_mx_ee_cpu.inc **** 
 375:Generated_Source\PSoC5/ErikaOS_cortex_mx_ee_cpu.inc ****   if (vectact > EE_CORTEX_MX_SYSTICK_EXC_NUM) {
 628              		.loc 2 375 0
 629 0016 0F2B     		cmp	r3, #15
 630 0018 10D9     		bls	.L55
 376:Generated_Source\PSoC5/ErikaOS_cortex_mx_ee_cpu.inc ****     vectact -= EE_CORTEX_MX_SYSTICK_EXC_NUM + 1;
 631              		.loc 2 376 0
 632 001a 103B     		subs	r3, r3, #16
ARM GAS  C:\Users\agila\AppData\Local\Temp\cc1fcZB2.s 			page 24


 633              	.LVL67:
 377:Generated_Source\PSoC5/ErikaOS_cortex_mx_ee_cpu.inc ****     prio = NVIC_GET_PRI(vectact);
 634              		.loc 2 377 0
 635 001c 23F00302 		bic	r2, r3, #3
 636 0020 02F16042 		add	r2, r2, #-536870912
 637 0024 02F56442 		add	r2, r2, #58368
 638 0028 1168     		ldr	r1, [r2]
 639 002a DB00     		lsls	r3, r3, #3
 640              	.LVL68:
 641 002c 03F01803 		and	r3, r3, #24
 642 0030 E022     		movs	r2, #224
 643 0032 9A40     		lsls	r2, r2, r3
 644 0034 0A40     		ands	r2, r2, r1
 645 0036 22FA03F3 		lsr	r3, r2, r3
 646              	.LVL69:
 647 003a 00E0     		b	.L52
 648              	.LVL70:
 649              	.L55:
 373:Generated_Source\PSoC5/ErikaOS_cortex_mx_ee_cpu.inc ****   register EE_TYPEISR2PRIO prio = 0;
 650              		.loc 2 373 0
 651 003c 0023     		movs	r3, #0
 652              	.LVL71:
 653              	.L52:
 654              	.LBE38:
 655              	.LBE37:
 656              	.LBB39:
 657              	.LBB40:
 358:Generated_Source\PSoC5/ErikaOS_cortex_mx_ee_cpu.inc **** #else
 658              		.loc 2 358 0
 659              		.syntax unified
 660              	@ 358 "Generated_Source\PSoC5/ErikaOS_cortex_mx_ee_cpu.inc" 1
 661 003e 83F31188 		MSR BASEPRI, r3
 662              	@ 0 "" 2
 663              		.thumb
 664              		.syntax unified
 665              	.LBE40:
 666              	.LBE39:
 667              	.LBB41:
 668              	.LBB42:
 669              		.file 3 "Generated_Source\\PSoC5/ErikaOS_common_ee_irqstub.inc"
   1:Generated_Source\PSoC5/ErikaOS_common_ee_irqstub.inc **** /* ###*B*###
   2:Generated_Source\PSoC5/ErikaOS_common_ee_irqstub.inc ****  * ERIKA Enterprise - a tiny RTOS for small microcontrollers
   3:Generated_Source\PSoC5/ErikaOS_common_ee_irqstub.inc ****  *
   4:Generated_Source\PSoC5/ErikaOS_common_ee_irqstub.inc ****  * Copyright (C) 2002-2010  Evidence Srl
   5:Generated_Source\PSoC5/ErikaOS_common_ee_irqstub.inc ****  *
   6:Generated_Source\PSoC5/ErikaOS_common_ee_irqstub.inc ****  * This file is part of ERIKA Enterprise.
   7:Generated_Source\PSoC5/ErikaOS_common_ee_irqstub.inc ****  *
   8:Generated_Source\PSoC5/ErikaOS_common_ee_irqstub.inc ****  * ERIKA Enterprise is free software; you can redistribute it
   9:Generated_Source\PSoC5/ErikaOS_common_ee_irqstub.inc ****  * and/or modify it under the terms of the GNU General Public License
  10:Generated_Source\PSoC5/ErikaOS_common_ee_irqstub.inc ****  * version 2 as published by the Free Software Foundation,
  11:Generated_Source\PSoC5/ErikaOS_common_ee_irqstub.inc ****  * (with a special exception described below).
  12:Generated_Source\PSoC5/ErikaOS_common_ee_irqstub.inc ****  *
  13:Generated_Source\PSoC5/ErikaOS_common_ee_irqstub.inc ****  * Linking this code statically or dynamically with other modules is
  14:Generated_Source\PSoC5/ErikaOS_common_ee_irqstub.inc ****  * making a combined work based on this code.  Thus, the terms and
  15:Generated_Source\PSoC5/ErikaOS_common_ee_irqstub.inc ****  * conditions of the GNU General Public License cover the whole
  16:Generated_Source\PSoC5/ErikaOS_common_ee_irqstub.inc ****  * combination.
  17:Generated_Source\PSoC5/ErikaOS_common_ee_irqstub.inc ****  *
ARM GAS  C:\Users\agila\AppData\Local\Temp\cc1fcZB2.s 			page 25


  18:Generated_Source\PSoC5/ErikaOS_common_ee_irqstub.inc ****  * As a special exception, the copyright holders of this library give you
  19:Generated_Source\PSoC5/ErikaOS_common_ee_irqstub.inc ****  * permission to link this code with independent modules to produce an
  20:Generated_Source\PSoC5/ErikaOS_common_ee_irqstub.inc ****  * executable, regardless of the license terms of these independent
  21:Generated_Source\PSoC5/ErikaOS_common_ee_irqstub.inc ****  * modules, and to copy and distribute the resulting executable under
  22:Generated_Source\PSoC5/ErikaOS_common_ee_irqstub.inc ****  * terms of your choice, provided that you also meet, for each linked
  23:Generated_Source\PSoC5/ErikaOS_common_ee_irqstub.inc ****  * independent module, the terms and conditions of the license of that
  24:Generated_Source\PSoC5/ErikaOS_common_ee_irqstub.inc ****  * module.  An independent module is a module which is not derived from
  25:Generated_Source\PSoC5/ErikaOS_common_ee_irqstub.inc ****  * or based on this library.  If you modify this code, you may extend
  26:Generated_Source\PSoC5/ErikaOS_common_ee_irqstub.inc ****  * this exception to your version of the code, but you are not
  27:Generated_Source\PSoC5/ErikaOS_common_ee_irqstub.inc ****  * obligated to do so.  If you do not wish to do so, delete this
  28:Generated_Source\PSoC5/ErikaOS_common_ee_irqstub.inc ****  * exception statement from your version.
  29:Generated_Source\PSoC5/ErikaOS_common_ee_irqstub.inc ****  *
  30:Generated_Source\PSoC5/ErikaOS_common_ee_irqstub.inc ****  * ERIKA Enterprise is distributed in the hope that it will be
  31:Generated_Source\PSoC5/ErikaOS_common_ee_irqstub.inc ****  * useful, but WITHOUT ANY WARRANTY; without even the implied warranty
  32:Generated_Source\PSoC5/ErikaOS_common_ee_irqstub.inc ****  * of MERCHANTABILITY or FITNESS FOR A PARTICULAR PURPOSE.  See the
  33:Generated_Source\PSoC5/ErikaOS_common_ee_irqstub.inc ****  * GNU General Public License version 2 for more details.
  34:Generated_Source\PSoC5/ErikaOS_common_ee_irqstub.inc ****  *
  35:Generated_Source\PSoC5/ErikaOS_common_ee_irqstub.inc ****  * You should have received a copy of the GNU General Public License
  36:Generated_Source\PSoC5/ErikaOS_common_ee_irqstub.inc ****  * version 2 along with ERIKA Enterprise; if not, write to the
  37:Generated_Source\PSoC5/ErikaOS_common_ee_irqstub.inc ****  * Free Software Foundation, Inc., 51 Franklin Street, Fifth Floor,
  38:Generated_Source\PSoC5/ErikaOS_common_ee_irqstub.inc ****  * Boston, MA 02110-1301 USA.
  39:Generated_Source\PSoC5/ErikaOS_common_ee_irqstub.inc ****  * ###*E*### */
  40:Generated_Source\PSoC5/ErikaOS_common_ee_irqstub.inc **** 
  41:Generated_Source\PSoC5/ErikaOS_common_ee_irqstub.inc **** /*
  42:Generated_Source\PSoC5/ErikaOS_common_ee_irqstub.inc ****  * Some IRQ-related stuff.
  43:Generated_Source\PSoC5/ErikaOS_common_ee_irqstub.inc ****  * Author: 2009-2010,  Bernardo  Dal Seno
  44:Generated_Source\PSoC5/ErikaOS_common_ee_irqstub.inc ****  */
  45:Generated_Source\PSoC5/ErikaOS_common_ee_irqstub.inc **** 
  46:Generated_Source\PSoC5/ErikaOS_common_ee_irqstub.inc **** /*
  47:Generated_Source\PSoC5/ErikaOS_common_ee_irqstub.inc ****  * PSoC Port and API Generation
  48:Generated_Source\PSoC5/ErikaOS_common_ee_irqstub.inc ****  * Carlos Fernando Meier Martinez
  49:Generated_Source\PSoC5/ErikaOS_common_ee_irqstub.inc ****  * Hochschule Darmstadt, Germany. 2017.
  50:Generated_Source\PSoC5/ErikaOS_common_ee_irqstub.inc ****  */
  51:Generated_Source\PSoC5/ErikaOS_common_ee_irqstub.inc **** 
  52:Generated_Source\PSoC5/ErikaOS_common_ee_irqstub.inc **** /*******************************************************************************
  53:Generated_Source\PSoC5/ErikaOS_common_ee_irqstub.inc ****  *                        !!!WARNING!!!
  54:Generated_Source\PSoC5/ErikaOS_common_ee_irqstub.inc ****  * This header depends on "cpu/common/inc/ee_context.inc" or your own
  55:Generated_Source\PSoC5/ErikaOS_common_ee_irqstub.inc ****  * implementation of the same. You should include it file before including this
  56:Generated_Source\PSoC5/ErikaOS_common_ee_irqstub.inc ****  * file
  57:Generated_Source\PSoC5/ErikaOS_common_ee_irqstub.inc ****  ******************************************************************************/
  58:Generated_Source\PSoC5/ErikaOS_common_ee_irqstub.inc **** 
  59:Generated_Source\PSoC5/ErikaOS_common_ee_irqstub.inc **** #ifndef PKG_CPU_COMMON_INC_EE_IRQSTUB_H
  60:Generated_Source\PSoC5/ErikaOS_common_ee_irqstub.inc **** #define PKG_CPU_COMMON_INC_EE_IRQSTUB_H
  61:Generated_Source\PSoC5/ErikaOS_common_ee_irqstub.inc **** 
  62:Generated_Source\PSoC5/ErikaOS_common_ee_irqstub.inc **** /* this bring EE_IRQ_nesting_level definition */
  63:Generated_Source\PSoC5/ErikaOS_common_ee_irqstub.inc **** #include "ErikaOS_common_ee_primitives.inc"
  64:Generated_Source\PSoC5/ErikaOS_common_ee_irqstub.inc **** 
  65:Generated_Source\PSoC5/ErikaOS_common_ee_irqstub.inc **** /* True if we are inside an interrupt-serving routine */
  66:Generated_Source\PSoC5/ErikaOS_common_ee_irqstub.inc **** __INLINE__ EE_TYPEBOOL  EE_is_inside_ISR_call( void )
  67:Generated_Source\PSoC5/ErikaOS_common_ee_irqstub.inc **** {
  68:Generated_Source\PSoC5/ErikaOS_common_ee_irqstub.inc ****   return (EE_IRQ_nesting_level > 0U);
  69:Generated_Source\PSoC5/ErikaOS_common_ee_irqstub.inc **** }
  70:Generated_Source\PSoC5/ErikaOS_common_ee_irqstub.inc **** 
  71:Generated_Source\PSoC5/ErikaOS_common_ee_irqstub.inc **** 
  72:Generated_Source\PSoC5/ErikaOS_common_ee_irqstub.inc **** /* EE_decrement_IRQ_nesting_level() and EE_increment_IRQ_nesting_level() are
  73:Generated_Source\PSoC5/ErikaOS_common_ee_irqstub.inc ****  * used to keep track of the current IRQ nesting level.
  74:Generated_Source\PSoC5/ErikaOS_common_ee_irqstub.inc ****  * EE_std_enableIRQ_nested() and EE_std_disableIRQ_nested() are used to control
ARM GAS  C:\Users\agila\AppData\Local\Temp\cc1fcZB2.s 			page 26


  75:Generated_Source\PSoC5/ErikaOS_common_ee_irqstub.inc ****  * when IRQ nesting is enabled.
  76:Generated_Source\PSoC5/ErikaOS_common_ee_irqstub.inc ****  */
  77:Generated_Source\PSoC5/ErikaOS_common_ee_irqstub.inc **** #if defined(__AS_SC4__)
  78:Generated_Source\PSoC5/ErikaOS_common_ee_irqstub.inc **** /* For SC4 the nesting level is updated inside the prestub and postub */
  79:Generated_Source\PSoC5/ErikaOS_common_ee_irqstub.inc **** __INLINE__ void  EE_decrement_IRQ_nesting_level(void) {}
  80:Generated_Source\PSoC5/ErikaOS_common_ee_irqstub.inc **** __INLINE__ void  EE_increment_IRQ_nesting_level(void) {}
  81:Generated_Source\PSoC5/ErikaOS_common_ee_irqstub.inc **** __INLINE__ void  EE_std_enableIRQ_nested(void) {}
  82:Generated_Source\PSoC5/ErikaOS_common_ee_irqstub.inc **** __INLINE__ void  EE_std_disableIRQ_nested(void) {}
  83:Generated_Source\PSoC5/ErikaOS_common_ee_irqstub.inc **** #elif defined(__ALLOW_NESTED_IRQ__)
  84:Generated_Source\PSoC5/ErikaOS_common_ee_irqstub.inc **** __INLINE__ void  EE_decrement_IRQ_nesting_level(void) { --EE_IRQ_nesting_level; }
  85:Generated_Source\PSoC5/ErikaOS_common_ee_irqstub.inc **** __INLINE__ void  EE_increment_IRQ_nesting_level(void) { ++EE_IRQ_nesting_level; }
 670              		.loc 3 85 0
 671 0042 104A     		ldr	r2, .L56+4
 672 0044 1368     		ldr	r3, [r2]
 673 0046 0133     		adds	r3, r3, #1
 674 0048 1360     		str	r3, [r2]
 675              	.LBE42:
 676              	.LBE41:
 271:source\asw/main.c ****     /* Clear pending interrupt flag for the UART RX source. */
 677              		.loc 1 271 0
 678 004a 012B     		cmp	r3, #1
 679 004c 01D1     		bne	.L53
 271:source\asw/main.c ****     /* Clear pending interrupt flag for the UART RX source. */
 680              		.loc 1 271 0 is_stmt 0 discriminator 1
 681 004e FFF7FEFF 		bl	EE_cortex_mx_change_IRQ_stack
 682              	.LVL72:
 683              	.L53:
 684              	.LBB43:
 685              	.LBB44:
 191:Generated_Source\PSoC5/ErikaOS_cortex_mx_ee_cpu.inc **** #endif	/* !__KEIL__ */
 686              		.loc 2 191 0 is_stmt 1 discriminator 3
 687              		.syntax unified
 688              	@ 191 "Generated_Source\PSoC5/ErikaOS_cortex_mx_ee_cpu.inc" 1
 689 0052 62B6     		cpsie i
 690              	@ 0 "" 2
 691              		.thumb
 692              		.syntax unified
 693              	.LBE44:
 694              	.LBE43:
 271:source\asw/main.c ****     /* Clear pending interrupt flag for the UART RX source. */
 695              		.loc 1 271 0 discriminator 3
 696 0054 FFF7FEFF 		bl	ISR2_isr_uartRX
 697              	.LVL73:
 698              	.LBB45:
 699              	.LBB46:
 211:Generated_Source\PSoC5/ErikaOS_cortex_mx_ee_cpu.inc **** #endif	/* !__KEIL__ */
 700              		.loc 2 211 0 discriminator 3
 701              		.syntax unified
 702              	@ 211 "Generated_Source\PSoC5/ErikaOS_cortex_mx_ee_cpu.inc" 1
 703 0058 72B6     		cpsid i
 704              	@ 0 "" 2
 705              	.LVL74:
 706              		.thumb
 707              		.syntax unified
 708              	.LBE46:
 709              	.LBE45:
 710              	.LBB47:
ARM GAS  C:\Users\agila\AppData\Local\Temp\cc1fcZB2.s 			page 27


 711              	.LBB48:
 358:Generated_Source\PSoC5/ErikaOS_cortex_mx_ee_cpu.inc **** #else
 712              		.loc 2 358 0 discriminator 3
 713              		.syntax unified
 714              	@ 358 "Generated_Source\PSoC5/ErikaOS_cortex_mx_ee_cpu.inc" 1
 715 005a 84F31188 		MSR BASEPRI, r4
 716              	@ 0 "" 2
 717              	.LVL75:
 718              		.thumb
 719              		.syntax unified
 720              	.LBE48:
 721              	.LBE47:
 722              	.LBB49:
 723              	.LBB50:
  86:Generated_Source\PSoC5/ErikaOS_common_ee_irqstub.inc **** /*  EE_std_enableIRQ_nested() and EE_std_disableIRQ_nested() must be defined in
  87:Generated_Source\PSoC5/ErikaOS_common_ee_irqstub.inc ****  *  the platform-dependent part, as they dependend on the particular way
  88:Generated_Source\PSoC5/ErikaOS_common_ee_irqstub.inc ****  *  interrupts are handled by the CPU. */
  89:Generated_Source\PSoC5/ErikaOS_common_ee_irqstub.inc **** #else
  90:Generated_Source\PSoC5/ErikaOS_common_ee_irqstub.inc **** __INLINE__ void  EE_decrement_IRQ_nesting_level(void) { EE_IRQ_nesting_level = 0U; }
  91:Generated_Source\PSoC5/ErikaOS_common_ee_irqstub.inc **** __INLINE__ void  EE_increment_IRQ_nesting_level(void) { EE_IRQ_nesting_level = 1U; }
  92:Generated_Source\PSoC5/ErikaOS_common_ee_irqstub.inc **** __INLINE__ void  EE_std_enableIRQ_nested(void) {}
  93:Generated_Source\PSoC5/ErikaOS_common_ee_irqstub.inc **** __INLINE__ void  EE_std_disableIRQ_nested(void) {}
  94:Generated_Source\PSoC5/ErikaOS_common_ee_irqstub.inc **** #endif
  95:Generated_Source\PSoC5/ErikaOS_common_ee_irqstub.inc **** 
  96:Generated_Source\PSoC5/ErikaOS_common_ee_irqstub.inc **** #if (defined(__OO_BCC1__)) || (defined(__OO_BCC2__)) || (defined(__OO_ECC1__)) \
  97:Generated_Source\PSoC5/ErikaOS_common_ee_irqstub.inc ****   || (defined(__OO_ECC2__)) || (defined(__AS_SC4__))
  98:Generated_Source\PSoC5/ErikaOS_common_ee_irqstub.inc **** /* Function to be called at the end of a function service interrupt, to execute
  99:Generated_Source\PSoC5/ErikaOS_common_ee_irqstub.inc ****    clean-up specifiend in Autosar standard */
 100:Generated_Source\PSoC5/ErikaOS_common_ee_irqstub.inc **** __INLINE__ void  EE_std_end_IRQ_post_stub(void)
 101:Generated_Source\PSoC5/ErikaOS_common_ee_irqstub.inc **** {
 102:Generated_Source\PSoC5/ErikaOS_common_ee_irqstub.inc ****   EE_IRQ_end_post_stub();
 724              		.loc 3 102 0 discriminator 3
 725 005e FFF7FEFF 		bl	EE_IRQ_end_post_stub
 726              	.LVL76:
 727              	.LBE50:
 728              	.LBE49:
 729              	.LBB51:
 730              	.LBB52:
  84:Generated_Source\PSoC5/ErikaOS_common_ee_irqstub.inc **** __INLINE__ void  EE_increment_IRQ_nesting_level(void) { ++EE_IRQ_nesting_level; }
 731              		.loc 3 84 0 discriminator 3
 732 0062 084A     		ldr	r2, .L56+4
 733 0064 1368     		ldr	r3, [r2]
 734 0066 013B     		subs	r3, r3, #1
 735 0068 1360     		str	r3, [r2]
 736              	.LBE52:
 737              	.LBE51:
 271:source\asw/main.c ****     /* Clear pending interrupt flag for the UART RX source. */
 738              		.loc 1 271 0 discriminator 3
 739 006a 1BB9     		cbnz	r3, .L54
 271:source\asw/main.c ****     /* Clear pending interrupt flag for the UART RX source. */
 740              		.loc 1 271 0 is_stmt 0 discriminator 4
 741 006c FFF7FEFF 		bl	EE_cortex_mx_change_IRQ_stack_back
 742              	.LVL77:
 743              	.LBB53:
 744              	.LBB54:
 745              		.file 4 "Generated_Source\\PSoC5/ErikaOS_cortex_mx_ee_irq_cng_cont.inc"
   1:Generated_Source\PSoC5/ErikaOS_cortex_mx_ee_irq_cng_cont.inc **** /* ###*B*###
ARM GAS  C:\Users\agila\AppData\Local\Temp\cc1fcZB2.s 			page 28


   2:Generated_Source\PSoC5/ErikaOS_cortex_mx_ee_irq_cng_cont.inc ****  * ERIKA Enterprise - a tiny RTOS for small microcontrollers
   3:Generated_Source\PSoC5/ErikaOS_cortex_mx_ee_irq_cng_cont.inc ****  *
   4:Generated_Source\PSoC5/ErikaOS_cortex_mx_ee_irq_cng_cont.inc ****  * Copyright (C) 2002-2011  Evidence Srl
   5:Generated_Source\PSoC5/ErikaOS_cortex_mx_ee_irq_cng_cont.inc ****  *
   6:Generated_Source\PSoC5/ErikaOS_cortex_mx_ee_irq_cng_cont.inc ****  * This file is part of ERIKA Enterprise.
   7:Generated_Source\PSoC5/ErikaOS_cortex_mx_ee_irq_cng_cont.inc ****  *
   8:Generated_Source\PSoC5/ErikaOS_cortex_mx_ee_irq_cng_cont.inc ****  * ERIKA Enterprise is free software; you can redistribute it
   9:Generated_Source\PSoC5/ErikaOS_cortex_mx_ee_irq_cng_cont.inc ****  * and/or modify it under the terms of the GNU General Public License
  10:Generated_Source\PSoC5/ErikaOS_cortex_mx_ee_irq_cng_cont.inc ****  * version 2 as published by the Free Software Foundation, 
  11:Generated_Source\PSoC5/ErikaOS_cortex_mx_ee_irq_cng_cont.inc ****  * (with a special exception described below).
  12:Generated_Source\PSoC5/ErikaOS_cortex_mx_ee_irq_cng_cont.inc ****  *
  13:Generated_Source\PSoC5/ErikaOS_cortex_mx_ee_irq_cng_cont.inc ****  * Linking this code statically or dynamically with other modules is
  14:Generated_Source\PSoC5/ErikaOS_cortex_mx_ee_irq_cng_cont.inc ****  * making a combined work based on this code.  Thus, the terms and
  15:Generated_Source\PSoC5/ErikaOS_cortex_mx_ee_irq_cng_cont.inc ****  * conditions of the GNU General Public License cover the whole
  16:Generated_Source\PSoC5/ErikaOS_cortex_mx_ee_irq_cng_cont.inc ****  * combination.
  17:Generated_Source\PSoC5/ErikaOS_cortex_mx_ee_irq_cng_cont.inc ****  *
  18:Generated_Source\PSoC5/ErikaOS_cortex_mx_ee_irq_cng_cont.inc ****  * As a special exception, the copyright holders of this library give you
  19:Generated_Source\PSoC5/ErikaOS_cortex_mx_ee_irq_cng_cont.inc ****  * permission to link this code with independent modules to produce an
  20:Generated_Source\PSoC5/ErikaOS_cortex_mx_ee_irq_cng_cont.inc ****  * executable, regardless of the license terms of these independent
  21:Generated_Source\PSoC5/ErikaOS_cortex_mx_ee_irq_cng_cont.inc ****  * modules, and to copy and distribute the resulting executable under
  22:Generated_Source\PSoC5/ErikaOS_cortex_mx_ee_irq_cng_cont.inc ****  * terms of your choice, provided that you also meet, for each linked
  23:Generated_Source\PSoC5/ErikaOS_cortex_mx_ee_irq_cng_cont.inc ****  * independent module, the terms and conditions of the license of that
  24:Generated_Source\PSoC5/ErikaOS_cortex_mx_ee_irq_cng_cont.inc ****  * module.  An independent module is a module which is not derived from
  25:Generated_Source\PSoC5/ErikaOS_cortex_mx_ee_irq_cng_cont.inc ****  * or based on this library.  If you modify this code, you may extend
  26:Generated_Source\PSoC5/ErikaOS_cortex_mx_ee_irq_cng_cont.inc ****  * this exception to your version of the code, but you are not
  27:Generated_Source\PSoC5/ErikaOS_cortex_mx_ee_irq_cng_cont.inc ****  * obligated to do so.  If you do not wish to do so, delete this
  28:Generated_Source\PSoC5/ErikaOS_cortex_mx_ee_irq_cng_cont.inc ****  * exception statement from your version.
  29:Generated_Source\PSoC5/ErikaOS_cortex_mx_ee_irq_cng_cont.inc ****  *
  30:Generated_Source\PSoC5/ErikaOS_cortex_mx_ee_irq_cng_cont.inc ****  * ERIKA Enterprise is distributed in the hope that it will be
  31:Generated_Source\PSoC5/ErikaOS_cortex_mx_ee_irq_cng_cont.inc ****  * useful, but WITHOUT ANY WARRANTY; without even the implied warranty
  32:Generated_Source\PSoC5/ErikaOS_cortex_mx_ee_irq_cng_cont.inc ****  * of MERCHANTABILITY or FITNESS FOR A PARTICULAR PURPOSE.  See the
  33:Generated_Source\PSoC5/ErikaOS_cortex_mx_ee_irq_cng_cont.inc ****  * GNU General Public License version 2 for more details.
  34:Generated_Source\PSoC5/ErikaOS_cortex_mx_ee_irq_cng_cont.inc ****  *
  35:Generated_Source\PSoC5/ErikaOS_cortex_mx_ee_irq_cng_cont.inc ****  * You should have received a copy of the GNU General Public License
  36:Generated_Source\PSoC5/ErikaOS_cortex_mx_ee_irq_cng_cont.inc ****  * version 2 along with ERIKA Enterprise; if not, write to the
  37:Generated_Source\PSoC5/ErikaOS_cortex_mx_ee_irq_cng_cont.inc ****  * Free Software Foundation, Inc., 51 Franklin Street, Fifth Floor,
  38:Generated_Source\PSoC5/ErikaOS_cortex_mx_ee_irq_cng_cont.inc ****  * Boston, MA 02110-1301 USA.
  39:Generated_Source\PSoC5/ErikaOS_cortex_mx_ee_irq_cng_cont.inc ****  * ###*E*### */
  40:Generated_Source\PSoC5/ErikaOS_cortex_mx_ee_irq_cng_cont.inc **** 
  41:Generated_Source\PSoC5/ErikaOS_cortex_mx_ee_irq_cng_cont.inc ****  /** 
  42:Generated_Source\PSoC5/ErikaOS_cortex_mx_ee_irq_cng_cont.inc **** 	
  43:Generated_Source\PSoC5/ErikaOS_cortex_mx_ee_irq_cng_cont.inc **** 	@file	ee_irq_cng_cont.h
  44:Generated_Source\PSoC5/ErikaOS_cortex_mx_ee_irq_cng_cont.inc **** 	@brief	Function active the context change interrupt
  45:Generated_Source\PSoC5/ErikaOS_cortex_mx_ee_irq_cng_cont.inc **** 	@author	Gianluca Franchino
  46:Generated_Source\PSoC5/ErikaOS_cortex_mx_ee_irq_cng_cont.inc **** 	@author	Giuseppe Serano
  47:Generated_Source\PSoC5/ErikaOS_cortex_mx_ee_irq_cng_cont.inc **** 	@date	2012
  48:Generated_Source\PSoC5/ErikaOS_cortex_mx_ee_irq_cng_cont.inc **** */ 
  49:Generated_Source\PSoC5/ErikaOS_cortex_mx_ee_irq_cng_cont.inc ****     
  50:Generated_Source\PSoC5/ErikaOS_cortex_mx_ee_irq_cng_cont.inc **** /*
  51:Generated_Source\PSoC5/ErikaOS_cortex_mx_ee_irq_cng_cont.inc ****  * PSoC Port and API Generation
  52:Generated_Source\PSoC5/ErikaOS_cortex_mx_ee_irq_cng_cont.inc ****  * Carlos Fernando Meier Martinez
  53:Generated_Source\PSoC5/ErikaOS_cortex_mx_ee_irq_cng_cont.inc ****  * Hochschule Darmstadt, Germany. 2017.
  54:Generated_Source\PSoC5/ErikaOS_cortex_mx_ee_irq_cng_cont.inc ****  */
  55:Generated_Source\PSoC5/ErikaOS_cortex_mx_ee_irq_cng_cont.inc **** 
  56:Generated_Source\PSoC5/ErikaOS_cortex_mx_ee_irq_cng_cont.inc **** #ifndef __INCLUDE_CORTEX_MX_IRQ_CNG_CONTEXT_H__
  57:Generated_Source\PSoC5/ErikaOS_cortex_mx_ee_irq_cng_cont.inc **** #define __INCLUDE_CORTEX_MX_IRQ_CNG_CONTEXT_H__
  58:Generated_Source\PSoC5/ErikaOS_cortex_mx_ee_irq_cng_cont.inc **** 
ARM GAS  C:\Users\agila\AppData\Local\Temp\cc1fcZB2.s 			page 29


  59:Generated_Source\PSoC5/ErikaOS_cortex_mx_ee_irq_cng_cont.inc **** #ifdef __GNU__
  60:Generated_Source\PSoC5/ErikaOS_cortex_mx_ee_irq_cng_cont.inc **** #include "ErikaOS_common_ee_compiler_gcc.inc"
  61:Generated_Source\PSoC5/ErikaOS_cortex_mx_ee_irq_cng_cont.inc **** #endif
  62:Generated_Source\PSoC5/ErikaOS_cortex_mx_ee_irq_cng_cont.inc **** 
  63:Generated_Source\PSoC5/ErikaOS_cortex_mx_ee_irq_cng_cont.inc **** /* Implemented in ee_<compiler>_change_context_isr.s */
  64:Generated_Source\PSoC5/ErikaOS_cortex_mx_ee_irq_cng_cont.inc **** extern void EE_switch_context(void);
  65:Generated_Source\PSoC5/ErikaOS_cortex_mx_ee_irq_cng_cont.inc **** 
  66:Generated_Source\PSoC5/ErikaOS_cortex_mx_ee_irq_cng_cont.inc **** __INLINE__ void  EE_cortex_mx_IRQ_active_change_context(void)
  67:Generated_Source\PSoC5/ErikaOS_cortex_mx_ee_irq_cng_cont.inc **** {
  68:Generated_Source\PSoC5/ErikaOS_cortex_mx_ee_irq_cng_cont.inc **** 	EE_switch_context();
 746              		.loc 4 68 0 is_stmt 1 discriminator 4
 747 0070 FFF7FEFF 		bl	EE_switch_context
 748              	.LVL78:
 749              	.L54:
 750              	.LBE54:
 751              	.LBE53:
 752              	.LBB55:
 753              	.LBB56:
 191:Generated_Source\PSoC5/ErikaOS_cortex_mx_ee_cpu.inc **** #endif	/* !__KEIL__ */
 754              		.loc 2 191 0 discriminator 6
 755              		.syntax unified
 756              	@ 191 "Generated_Source\PSoC5/ErikaOS_cortex_mx_ee_cpu.inc" 1
 757 0074 62B6     		cpsie i
 758              	@ 0 "" 2
 759              		.thumb
 760              		.syntax unified
 761              	.LBE56:
 762              	.LBE55:
 271:source\asw/main.c ****     /* Clear pending interrupt flag for the UART RX source. */
 763              		.loc 1 271 0 discriminator 6
 764 0076 BDE81940 		pop	{r0, r3, r4, lr}
 765              		.cfi_restore 14
 766              		.cfi_restore 4
 767              		.cfi_restore 3
 768              		.cfi_restore 0
 769              		.cfi_def_cfa_offset 0
 770 007a 8546     		mov	sp, r0
 771 007c 7047     		bx	lr
 772              	.L57:
 773 007e 00BF     		.align	2
 774              	.L56:
 775 0080 04ED00E0 		.word	-536810236
 776 0084 00000000 		.word	EE_IRQ_nesting_level
 777              		.cfi_endproc
 778              	.LFE109:
 779              		.size	isr_uartRX, .-isr_uartRX
 780              		.comm	sharedRB,1128,4
 781              		.comm	uartRB,262,4
 782              		.section	.rodata.str1.4,"aMS",%progbits,1
 783              		.align	2
 784              	.LC0:
 785 0000 0D0A3D3D 		.ascii	"\015\012===== Inter Task Communication =====\015\012"
 785      3D3D3D20 
 785      496E7465 
 785      72205461 
 785      736B2043 
 786 0028 00       		.ascii	"\000"
ARM GAS  C:\Users\agila\AppData\Local\Temp\cc1fcZB2.s 			page 30


 787 0029 000000   		.space	3
 788              	.LC1:
 789 002c 0D0A5265 		.ascii	"\015\012Received: \000"
 789      63656976 
 789      65643A20 
 789      00
 790 0039 000000   		.space	3
 791              	.LC2:
 792 003c 2C2000   		.ascii	", \000"
 793 003f 00       		.space	1
 794              	.LC3:
 795 0040 2E0A0D00 		.ascii	".\012\015\000"
 796              	.LC4:
 797 0044 5461736B 		.ascii	"Task Comms\012\000"
 797      20436F6D 
 797      6D730A00 
 798              		.text
 799              	.Letext0:
 800              		.file 5 "c:\\h_da softwares & projects\\psoc creator\\4.4\\psoc creator\\import\\gnu\\arm\\5.4.1\\
 801              		.file 6 "c:\\h_da softwares & projects\\psoc creator\\4.4\\psoc creator\\import\\gnu\\arm\\5.4.1\\
 802              		.file 7 "Generated_Source\\PSoC5/ErikaOS_common_ee_types.inc"
 803              		.file 8 "Generated_Source\\PSoC5/ErikaOS_ee_oo_common.inc"
 804              		.file 9 ".\\source\\bsw/global.h"
 805              		.file 10 "source\\asw\\comms.h"
 806              		.file 11 "Generated_Source\\PSoC5/ErikaOS_ee_oo_intfunc.inc"
 807              		.file 12 "Generated_Source\\PSoC5/ErikaOS_cortex_mx_ee_context.inc"
 808              		.file 13 "Generated_Source\\PSoC5/ErikaOS_common_ee_primitives.inc"
 809              		.file 14 "Generated_Source\\PSoC5/core_cm3.h"
 810              		.file 15 "Generated_Source\\PSoC5/ErikaOS_ee_oo_kernel.inc"
 811              		.file 16 "Generated_Source\\PSoC5/UART_LOG.h"
 812              		.file 17 ".\\source\\bsw\\cdd\\tft/tft.h"
 813              		.file 18 "Generated_Source\\PSoC5/isr_uartRX.h"
 814              		.file 19 "Generated_Source\\PSoC5/ErikaOS_ee_oo_irq.inc"
 815              		.file 20 "Generated_Source\\PSoC5/ErikaOS_cortex_mx_ee_irq.inc"