ARM GAS  C:\Users\agila\AppData\Local\Temp\ccWvU5Pj.s 			page 1


   1              		.syntax unified
   2              		.cpu cortex-m3
   3              		.fpu softvfp
   4              		.eabi_attribute 20, 1
   5              		.eabi_attribute 21, 1
   6              		.eabi_attribute 23, 3
   7              		.eabi_attribute 24, 1
   8              		.eabi_attribute 25, 1
   9              		.eabi_attribute 26, 1
  10              		.eabi_attribute 30, 1
  11              		.eabi_attribute 34, 1
  12              		.eabi_attribute 18, 4
  13              		.thumb
  14              		.syntax unified
  15              		.file	"ringbuffer.c"
  16              		.text
  17              	.Ltext0:
  18              		.cfi_sections	.debug_frame
  19              		.section	.text.RB_init,"ax",%progbits
  20              		.align	2
  21              		.global	RB_init
  22              		.thumb
  23              		.thumb_func
  24              		.type	RB_init, %function
  25              	RB_init:
  26              	.LFB110:
  27              		.file 1 "source\\bsw\\services\\ringbuffer.c"
   1:source\bsw\services/ringbuffer.c **** /**
   2:source\bsw\services/ringbuffer.c **** * \file ringbuffer.c
   3:source\bsw\services/ringbuffer.c **** * \author V.S. Agilan
   4:source\bsw\services/ringbuffer.c **** * \date 28.12.25
   5:source\bsw\services/ringbuffer.c **** *
   6:source\bsw\services/ringbuffer.c **** * \brief Ringbuffer
   7:source\bsw\services/ringbuffer.c **** *
   8:source\bsw\services/ringbuffer.c **** * Copyright YOUR COMPANY, THE YEAR
   9:source\bsw\services/ringbuffer.c **** * All Rights Reserved
  10:source\bsw\services/ringbuffer.c **** * UNPUBLISHED, LICENSED SOFTWARE.
  11:source\bsw\services/ringbuffer.c **** *
  12:source\bsw\services/ringbuffer.c **** * CONFIDENTIAL AND PROPRIETARY INFORMATION
  13:source\bsw\services/ringbuffer.c **** * WHICH IS THE PROPERTY OF your company.
  14:source\bsw\services/ringbuffer.c **** *
  15:source\bsw\services/ringbuffer.c **** * ========================================
  16:source\bsw\services/ringbuffer.c **** */
  17:source\bsw\services/ringbuffer.c **** 
  18:source\bsw\services/ringbuffer.c **** /*****************************************************************************/
  19:source\bsw\services/ringbuffer.c **** /* Include files                                                             */
  20:source\bsw\services/ringbuffer.c **** /*****************************************************************************/
  21:source\bsw\services/ringbuffer.c **** #include <project.h>
  22:source\bsw\services/ringbuffer.c **** #include "global.h"
  23:source\bsw\services/ringbuffer.c **** #include "ringbuffer.h"
  24:source\bsw\services/ringbuffer.c **** 
  25:source\bsw\services/ringbuffer.c **** /*****************************************************************************/
  26:source\bsw\services/ringbuffer.c **** /* API functions                                                             */
  27:source\bsw\services/ringbuffer.c **** /*****************************************************************************/
  28:source\bsw\services/ringbuffer.c **** 
  29:source\bsw\services/ringbuffer.c **** /**
  30:source\bsw\services/ringbuffer.c ****  * \brief initializes a ringbuffer handle / Clearing of a ringbuffer
ARM GAS  C:\Users\agila\AppData\Local\Temp\ccWvU5Pj.s 			page 2


  31:source\bsw\services/ringbuffer.c ****  * @param RB_t * const me : IN/OUT - pointer to ringbuffer object 
  32:source\bsw\services/ringbuffer.c ****  * @return RC_SUCCESS or error code
  33:source\bsw\services/ringbuffer.c ****  */
  34:source\bsw\services/ringbuffer.c **** RC_t RB_init(RB_t* const me)
  35:source\bsw\services/ringbuffer.c **** {
  28              		.loc 1 35 0
  29              		.cfi_startproc
  30              		@ args = 0, pretend = 0, frame = 0
  31              		@ frame_needed = 0, uses_anonymous_args = 0
  32              		@ link register save eliminated.
  33              	.LVL0:
  36:source\bsw\services/ringbuffer.c ****     if (NULL_PTR == me)
  34              		.loc 1 36 0
  35 0000 0146     		mov	r1, r0
  36 0002 78B1     		cbz	r0, .L5
  37:source\bsw\services/ringbuffer.c ****     {
  38:source\bsw\services/ringbuffer.c ****         return RC_ERROR_NULL;
  39:source\bsw\services/ringbuffer.c ****     }
  40:source\bsw\services/ringbuffer.c ****     
  41:source\bsw\services/ringbuffer.c ****     me->m_fillLevel     = 0;
  37              		.loc 1 41 0
  38 0004 0023     		movs	r3, #0
  39 0006 C0F8D030 		str	r3, [r0, #208]
  42:source\bsw\services/ringbuffer.c ****     me->m_readIndex     = 0;
  40              		.loc 1 42 0
  41 000a C0F8C830 		str	r3, [r0, #200]
  43:source\bsw\services/ringbuffer.c ****     me->m_writeIndex    = 0;
  42              		.loc 1 43 0
  43 000e C0F8CC30 		str	r3, [r0, #204]
  44              	.LVL1:
  45              	.LBB2:
  44:source\bsw\services/ringbuffer.c ****     
  45:source\bsw\services/ringbuffer.c ****     for (uint16_t i = 0; i < RB_SIZE; i++)
  46              		.loc 1 45 0
  47 0012 03E0     		b	.L3
  48              	.LVL2:
  49              	.L4:
  46:source\bsw\services/ringbuffer.c ****     {
  47:source\bsw\services/ringbuffer.c ****         me->m_buffer[i] = 0;
  50              		.loc 1 47 0 discriminator 3
  51 0014 0022     		movs	r2, #0
  52 0016 CA54     		strb	r2, [r1, r3]
  45:source\bsw\services/ringbuffer.c ****     {
  53              		.loc 1 45 0 discriminator 3
  54 0018 0133     		adds	r3, r3, #1
  55              	.LVL3:
  56 001a 9BB2     		uxth	r3, r3
  57              	.LVL4:
  58              	.L3:
  45:source\bsw\services/ringbuffer.c ****     {
  59              		.loc 1 45 0 is_stmt 0 discriminator 1
  60 001c C72B     		cmp	r3, #199
  61 001e F9D9     		bls	.L4
  62              	.LBE2:
  48:source\bsw\services/ringbuffer.c ****     }
  49:source\bsw\services/ringbuffer.c ****     
  50:source\bsw\services/ringbuffer.c ****     return RC_SUCCESS;
ARM GAS  C:\Users\agila\AppData\Local\Temp\ccWvU5Pj.s 			page 3


  63              		.loc 1 50 0 is_stmt 1
  64 0020 0020     		movs	r0, #0
  65              	.LVL5:
  66              	.LBB3:
  67 0022 7047     		bx	lr
  68              	.LVL6:
  69              	.L5:
  70              	.LBE3:
  38:source\bsw\services/ringbuffer.c ****     }
  71              		.loc 1 38 0
  72 0024 6FF00100 		mvn	r0, #1
  73              	.LVL7:
  51:source\bsw\services/ringbuffer.c **** }
  74              		.loc 1 51 0
  75 0028 7047     		bx	lr
  76              		.cfi_endproc
  77              	.LFE110:
  78              		.size	RB_init, .-RB_init
  79 002a 00BF     		.section	.text.RB_write,"ax",%progbits
  80              		.align	2
  81              		.global	RB_write
  82              		.thumb
  83              		.thumb_func
  84              		.type	RB_write, %function
  85              	RB_write:
  86              	.LFB111:
  52:source\bsw\services/ringbuffer.c **** 
  53:source\bsw\services/ringbuffer.c **** /**
  54:source\bsw\services/ringbuffer.c ****  * Write one element to the ringbuffer
  55:source\bsw\services/ringbuffer.c ****  * @param RB_t * const me : IN/OUT - pointer to ringbuffer object 
  56:source\bsw\services/ringbuffer.c ****  * @param RB_buffer_t const * const data : IN - Data to be written
  57:source\bsw\services/ringbuffer.c ****  * @return RC_SUCCESS or error code
  58:source\bsw\services/ringbuffer.c ****  */
  59:source\bsw\services/ringbuffer.c **** RC_t RB_write(RB_t* const me, RB_buffer_t const * const data)
  60:source\bsw\services/ringbuffer.c **** {
  87              		.loc 1 60 0
  88              		.cfi_startproc
  89              		@ args = 0, pretend = 0, frame = 0
  90              		@ frame_needed = 0, uses_anonymous_args = 0
  91              		@ link register save eliminated.
  92              	.LVL8:
  93 0000 10B4     		push	{r4}
  94              		.cfi_def_cfa_offset 4
  95              		.cfi_offset 4, -4
  61:source\bsw\services/ringbuffer.c ****     //GetResource(rb->erika_ressource);
  62:source\bsw\services/ringbuffer.c ****     
  63:source\bsw\services/ringbuffer.c ****     //we check if there is enough memory left to store the new data
  64:source\bsw\services/ringbuffer.c ****     if (me->m_fillLevel == RB_SIZE)
  96              		.loc 1 64 0
  97 0002 D0F8D040 		ldr	r4, [r0, #208]
  98 0006 C82C     		cmp	r4, #200
  99 0008 16D0     		beq	.L8
  65:source\bsw\services/ringbuffer.c ****     {
  66:source\bsw\services/ringbuffer.c ****         return RC_ERROR_BUFFER_FULL;
  67:source\bsw\services/ringbuffer.c ****     } else if (me->m_fillLevel < RB_SIZE)
 100              		.loc 1 67 0
 101 000a C72C     		cmp	r4, #199
ARM GAS  C:\Users\agila\AppData\Local\Temp\ccWvU5Pj.s 			page 4


 102 000c 17D8     		bhi	.L9
  68:source\bsw\services/ringbuffer.c ****     {
  69:source\bsw\services/ringbuffer.c ****         me->m_buffer[me->m_writeIndex++] = *data;
 103              		.loc 1 69 0
 104 000e D0F8CC20 		ldr	r2, [r0, #204]
 105 0012 531C     		adds	r3, r2, #1
 106 0014 C0F8CC30 		str	r3, [r0, #204]
 107 0018 0978     		ldrb	r1, [r1]	@ zero_extendqisi2
 108              	.LVL9:
 109 001a 8154     		strb	r1, [r0, r2]
  70:source\bsw\services/ringbuffer.c ****         me->m_writeIndex %= RB_SIZE;
 110              		.loc 1 70 0
 111 001c 094A     		ldr	r2, .L11
 112 001e A2FB0312 		umull	r1, r2, r2, r3
 113 0022 9209     		lsrs	r2, r2, #6
 114 0024 C821     		movs	r1, #200
 115 0026 01FB1233 		mls	r3, r1, r2, r3
 116 002a C0F8CC30 		str	r3, [r0, #204]
  71:source\bsw\services/ringbuffer.c ****         me->m_fillLevel++;
 117              		.loc 1 71 0
 118 002e 0134     		adds	r4, r4, #1
 119 0030 C0F8D040 		str	r4, [r0, #208]
  72:source\bsw\services/ringbuffer.c ****         
  73:source\bsw\services/ringbuffer.c ****         return RC_SUCCESS;
 120              		.loc 1 73 0
 121 0034 0020     		movs	r0, #0
 122              	.LVL10:
 123 0036 03E0     		b	.L7
 124              	.LVL11:
 125              	.L8:
  66:source\bsw\services/ringbuffer.c ****     } else if (me->m_fillLevel < RB_SIZE)
 126              		.loc 1 66 0
 127 0038 6FF00700 		mvn	r0, #7
 128              	.LVL12:
 129 003c 00E0     		b	.L7
 130              	.LVL13:
 131              	.L9:
  74:source\bsw\services/ringbuffer.c ****     }
  75:source\bsw\services/ringbuffer.c ****     
  76:source\bsw\services/ringbuffer.c ****     //ReleaseResource(rb->erika_ressource);
  77:source\bsw\services/ringbuffer.c ****     
  78:source\bsw\services/ringbuffer.c ****     return RC_SUCCESS;
 132              		.loc 1 78 0
 133 003e 0020     		movs	r0, #0
 134              	.LVL14:
 135              	.L7:
  79:source\bsw\services/ringbuffer.c **** }
 136              		.loc 1 79 0
 137 0040 10BC     		pop	{r4}
 138              		.cfi_restore 4
 139              		.cfi_def_cfa_offset 0
 140 0042 7047     		bx	lr
 141              	.L12:
 142              		.align	2
 143              	.L11:
 144 0044 1F85EB51 		.word	1374389535
 145              		.cfi_endproc
ARM GAS  C:\Users\agila\AppData\Local\Temp\ccWvU5Pj.s 			page 5


 146              	.LFE111:
 147              		.size	RB_write, .-RB_write
 148              		.section	.text.RB_read,"ax",%progbits
 149              		.align	2
 150              		.global	RB_read
 151              		.thumb
 152              		.thumb_func
 153              		.type	RB_read, %function
 154              	RB_read:
 155              	.LFB112:
  80:source\bsw\services/ringbuffer.c **** 
  81:source\bsw\services/ringbuffer.c **** /**
  82:source\bsw\services/ringbuffer.c ****  * Read one element from the ringbuffer
  83:source\bsw\services/ringbuffer.c ****  * @param RB_t * const me : IN/OUT - pointer to ringbuffer object 
  84:source\bsw\services/ringbuffer.c ****  * @param RB_buffer_t * const data : OUT - Data read
  85:source\bsw\services/ringbuffer.c ****  * @return RC_SUCCESS or error code
  86:source\bsw\services/ringbuffer.c ****  */
  87:source\bsw\services/ringbuffer.c **** RC_t RB_read(RB_t* const me, RB_buffer_t * const data)
  88:source\bsw\services/ringbuffer.c **** {
 156              		.loc 1 88 0
 157              		.cfi_startproc
 158              		@ args = 0, pretend = 0, frame = 0
 159              		@ frame_needed = 0, uses_anonymous_args = 0
 160              		@ link register save eliminated.
 161              	.LVL15:
  89:source\bsw\services/ringbuffer.c ****     //GetResource(rb->erika_ressource);
  90:source\bsw\services/ringbuffer.c ****     
  91:source\bsw\services/ringbuffer.c ****     //we check if the requested size is actually present in the buffer
  92:source\bsw\services/ringbuffer.c ****     if (me->m_fillLevel == 0)
 162              		.loc 1 92 0
 163 0000 D0F8D030 		ldr	r3, [r0, #208]
 164 0004 CBB1     		cbz	r3, .L15
  93:source\bsw\services/ringbuffer.c ****     {
  94:source\bsw\services/ringbuffer.c ****         return RC_ERROR_BUFFER_EMTPY;
  95:source\bsw\services/ringbuffer.c ****     } else if (me->m_fillLevel > 0)
 165              		.loc 1 95 0
 166 0006 DBB1     		cbz	r3, .L16
  96:source\bsw\services/ringbuffer.c ****     {
  97:source\bsw\services/ringbuffer.c ****         *data = me->m_buffer[me->m_readIndex++];
 167              		.loc 1 97 0
 168 0008 D0F8C830 		ldr	r3, [r0, #200]
 169 000c 5A1C     		adds	r2, r3, #1
 170 000e C0F8C820 		str	r2, [r0, #200]
 171 0012 C35C     		ldrb	r3, [r0, r3]	@ zero_extendqisi2
 172 0014 0B70     		strb	r3, [r1]
  98:source\bsw\services/ringbuffer.c ****         
  99:source\bsw\services/ringbuffer.c ****         me->m_readIndex %= RB_SIZE;
 173              		.loc 1 99 0
 174 0016 D0F8C830 		ldr	r3, [r0, #200]
 175 001a 0A4A     		ldr	r2, .L17
 176 001c A2FB0312 		umull	r1, r2, r2, r3
 177              	.LVL16:
 178 0020 9209     		lsrs	r2, r2, #6
 179 0022 C821     		movs	r1, #200
 180 0024 01FB1233 		mls	r3, r1, r2, r3
 181 0028 C0F8C830 		str	r3, [r0, #200]
 100:source\bsw\services/ringbuffer.c ****         me->m_fillLevel--;
ARM GAS  C:\Users\agila\AppData\Local\Temp\ccWvU5Pj.s 			page 6


 182              		.loc 1 100 0
 183 002c D0F8D030 		ldr	r3, [r0, #208]
 184 0030 013B     		subs	r3, r3, #1
 185 0032 C0F8D030 		str	r3, [r0, #208]
 101:source\bsw\services/ringbuffer.c ****         
 102:source\bsw\services/ringbuffer.c ****         return RC_SUCCESS;
 186              		.loc 1 102 0
 187 0036 0020     		movs	r0, #0
 188              	.LVL17:
 189 0038 7047     		bx	lr
 190              	.LVL18:
 191              	.L15:
  94:source\bsw\services/ringbuffer.c ****     } else if (me->m_fillLevel > 0)
 192              		.loc 1 94 0
 193 003a 6FF00800 		mvn	r0, #8
 194              	.LVL19:
 195 003e 7047     		bx	lr
 196              	.LVL20:
 197              	.L16:
 103:source\bsw\services/ringbuffer.c ****     }
 104:source\bsw\services/ringbuffer.c ****     
 105:source\bsw\services/ringbuffer.c ****     //ReleaseResource(rb->erika_ressource);
 106:source\bsw\services/ringbuffer.c ****     
 107:source\bsw\services/ringbuffer.c ****     return RC_SUCCESS;
 198              		.loc 1 107 0
 199 0040 0020     		movs	r0, #0
 200              	.LVL21:
 108:source\bsw\services/ringbuffer.c **** }
 201              		.loc 1 108 0
 202 0042 7047     		bx	lr
 203              	.L18:
 204              		.align	2
 205              	.L17:
 206 0044 1F85EB51 		.word	1374389535
 207              		.cfi_endproc
 208              	.LFE112:
 209              		.size	RB_read, .-RB_read
 210              		.section	.text.RB_getCapacity,"ax",%progbits
 211              		.align	2
 212              		.global	RB_getCapacity
 213              		.thumb
 214              		.thumb_func
 215              		.type	RB_getCapacity, %function
 216              	RB_getCapacity:
 217              	.LFB113:
 109:source\bsw\services/ringbuffer.c **** 
 110:source\bsw\services/ringbuffer.c **** /**
 111:source\bsw\services/ringbuffer.c ****  * Provide available space in buffer
 112:source\bsw\services/ringbuffer.c ****  * @param RB_t * const me : IN/OUT - pointer to ringbuffer object 
 113:source\bsw\services/ringbuffer.c ****  * @return Available number of elements to be stored
 114:source\bsw\services/ringbuffer.c ****  */
 115:source\bsw\services/ringbuffer.c **** uint16_t RB_getCapacity(RB_t * const me)
 116:source\bsw\services/ringbuffer.c **** {
 218              		.loc 1 116 0
 219              		.cfi_startproc
 220              		@ args = 0, pretend = 0, frame = 0
 221              		@ frame_needed = 0, uses_anonymous_args = 0
ARM GAS  C:\Users\agila\AppData\Local\Temp\ccWvU5Pj.s 			page 7


 222              		@ link register save eliminated.
 223              	.LVL22:
 117:source\bsw\services/ringbuffer.c ****     //Todo: No error handling considered, assume all other functions work as intended
 118:source\bsw\services/ringbuffer.c ****     return RB_SIZE - me->m_fillLevel;
 224              		.loc 1 118 0
 225 0000 D0F8D000 		ldr	r0, [r0, #208]
 226              	.LVL23:
 227 0004 C0F1C800 		rsb	r0, r0, #200
 119:source\bsw\services/ringbuffer.c **** }
 228              		.loc 1 119 0
 229 0008 80B2     		uxth	r0, r0
 230 000a 7047     		bx	lr
 231              		.cfi_endproc
 232              	.LFE113:
 233              		.size	RB_getCapacity, .-RB_getCapacity
 234              		.section	.text.RB_getNumberOfStoredElements,"ax",%progbits
 235              		.align	2
 236              		.global	RB_getNumberOfStoredElements
 237              		.thumb
 238              		.thumb_func
 239              		.type	RB_getNumberOfStoredElements, %function
 240              	RB_getNumberOfStoredElements:
 241              	.LFB114:
 120:source\bsw\services/ringbuffer.c **** 
 121:source\bsw\services/ringbuffer.c **** /**
 122:source\bsw\services/ringbuffer.c ****  * Check how much data is stored
 123:source\bsw\services/ringbuffer.c ****  * @param RB_t * const me : IN/OUT - pointer to ringbuffer object 
 124:source\bsw\services/ringbuffer.c ****  * @return number of byte stored
 125:source\bsw\services/ringbuffer.c ****  */
 126:source\bsw\services/ringbuffer.c **** uint16_t RB_getNumberOfStoredElements(RB_t * const me)
 127:source\bsw\services/ringbuffer.c **** {
 242              		.loc 1 127 0
 243              		.cfi_startproc
 244              		@ args = 0, pretend = 0, frame = 0
 245              		@ frame_needed = 0, uses_anonymous_args = 0
 246              		@ link register save eliminated.
 247              	.LVL24:
 128:source\bsw\services/ringbuffer.c ****     return me->m_fillLevel;
 129:source\bsw\services/ringbuffer.c **** }
 248              		.loc 1 129 0
 249 0000 B0F8D000 		ldrh	r0, [r0, #208]
 250              	.LVL25:
 251 0004 7047     		bx	lr
 252              		.cfi_endproc
 253              	.LFE114:
 254              		.size	RB_getNumberOfStoredElements, .-RB_getNumberOfStoredElements
 255 0006 00BF     		.text
 256              	.Letext0:
 257              		.file 2 "c:\\h_da softwares & projects\\psoc creator\\4.4\\psoc creator\\import\\gnu\\arm\\5.4.1\\
 258              		.file 3 "c:\\h_da softwares & projects\\psoc creator\\4.4\\psoc creator\\import\\gnu\\arm\\5.4.1\\
 259              		.file 4 "Generated_Source\\PSoC5/ErikaOS_common_ee_types.inc"
 260              		.file 5 "Generated_Source\\PSoC5/ErikaOS_cortex_mx_ee_cpu.inc"
 261              		.file 6 ".\\source\\bsw/global.h"
 262              		.file 7 "source\\bsw\\services\\ringbuffer.h"
 263              		.file 8 "Generated_Source\\PSoC5/ErikaOS_ee_oo_intfunc.inc"
 264              		.file 9 "Generated_Source\\PSoC5/ErikaOS_cortex_mx_ee_context.inc"
 265              		.file 10 "Generated_Source\\PSoC5/ErikaOS_common_ee_primitives.inc"
ARM GAS  C:\Users\agila\AppData\Local\Temp\ccWvU5Pj.s 			page 8


 266              		.file 11 "Generated_Source\\PSoC5/core_cm3.h"